	.text
	.file	"mas_blk_mq_tag.c"
	.file	1 "/mnt/disk/jenkins/ci/workspace/chipset_pipeline_release/opensource/component_code/vendor/huawei/extra/build/build_script/kirin_kernel_release/kernel/include/linux/kobject_ns.h"
	.file	2 "/mnt/disk/jenkins/ci/workspace/chipset_pipeline_release/opensource/component_code/vendor/huawei/extra/build/build_script/kirin_kernel_release/kernel/include/linux/module.h"
	.file	3 "/mnt/disk/jenkins/ci/workspace/chipset_pipeline_release/opensource/component_code/vendor/huawei/extra/build/build_script/kirin_kernel_release/kernel/include/linux/quota.h"
	.file	4 "/mnt/disk/jenkins/ci/workspace/chipset_pipeline_release/opensource/component_code/vendor/huawei/extra/build/build_script/kirin_kernel_release/kernel/include/linux/hrtimer.h"
	.file	5 "/mnt/disk/jenkins/ci/workspace/chipset_pipeline_release/opensource/component_code/vendor/huawei/extra/build/build_script/kirin_kernel_release/kernel/include/linux/mm.h"
	.file	6 "/mnt/disk/jenkins/ci/workspace/chipset_pipeline_release/opensource/component_code/vendor/huawei/extra/build/build_script/kirin_kernel_release/kernel/include/linux/restart_block.h"
	.file	7 "/mnt/disk/jenkins/ci/workspace/chipset_pipeline_release/opensource/component_code/vendor/huawei/extra/build/build_script/kirin_kernel_release/kernel/include/linux/device.h"
	.file	8 "/mnt/disk/jenkins/ci/workspace/chipset_pipeline_release/opensource/component_code/vendor/huawei/extra/build/build_script/kirin_kernel_release/kernel/include/linux/pm.h"
	.file	9 "/mnt/disk/jenkins/ci/workspace/chipset_pipeline_release/opensource/component_code/vendor/huawei/extra/build/build_script/kirin_kernel_release/kernel/include/linux/fs.h"
	.file	10 "/mnt/disk/jenkins/ci/workspace/chipset_pipeline_release/opensource/component_code/vendor/huawei/extra/build/build_script/kirin_kernel_release/kernel/include/linux/migrate_mode.h"
	.file	11 "/mnt/disk/jenkins/ci/workspace/chipset_pipeline_release/opensource/component_code/vendor/huawei/extra/build/build_script/kirin_kernel_release/kernel/include/linux/memremap.h"
	.file	12 "/mnt/disk/jenkins/ci/workspace/chipset_pipeline_release/opensource/component_code/vendor/huawei/extra/build/build_script/kirin_kernel_release/kernel/include/linux/rcu_sync.h"
	.file	13 "/mnt/disk/jenkins/ci/workspace/chipset_pipeline_release/opensource/component_code/vendor/huawei/extra/build/build_script/kirin_kernel_release/kernel/include/linux/pid.h"
	.file	14 "/mnt/disk/jenkins/ci/workspace/chipset_pipeline_release/opensource/component_code/vendor/huawei/extra/build/build_script/kirin_kernel_release/kernel/include/linux/blkdev.h"
	.file	15 "/mnt/disk/jenkins/ci/workspace/chipset_pipeline_release/opensource/component_code/vendor/huawei/extra/build/build_script/kirin_kernel_release/kernel/include/linux/elevator.h"
	.file	16 "/mnt/disk/jenkins/ci/workspace/chipset_pipeline_release/opensource/component_code/vendor/huawei/extra/build/build_script/kirin_kernel_release/kernel/block/mas_blk.h"
	.file	17 "/mnt/disk/jenkins/ci/workspace/chipset_pipeline_release/opensource/component_code/vendor/huawei/extra/build/build_script/kirin_kernel_release/kernel/include/linux/stddef.h"
	.file	18 "/mnt/disk/jenkins/ci/workspace/chipset_pipeline_release/opensource/component_code/vendor/huawei/extra/build/build_script/kirin_kernel_release/kernel/block/blk-mq-tag.h"
	.file	19 "/mnt/disk/jenkins/ci/workspace/chipset_pipeline_release/opensource/component_code/vendor/huawei/extra/build/build_script/kirin_kernel_release/kernel/include/linux/blk_types.h"
	.file	20 "/mnt/disk/jenkins/ci/workspace/chipset_pipeline_release/opensource/component_code/vendor/huawei/extra/build/build_script/kirin_kernel_release/kernel/include/linux/slab.h"
	.file	21 "/mnt/disk/jenkins/ci/workspace/chipset_pipeline_release/opensource/component_code/vendor/huawei/extra/build/build_script/kirin_kernel_release/kernel/include/linux/types.h"
	.file	22 "/mnt/disk/jenkins/ci/workspace/chipset_pipeline_release/opensource/component_code/vendor/huawei/extra/build/build_script/kirin_kernel_release/kernel/arch/arm64/include/asm/thread_info.h"
	.file	23 "/mnt/disk/jenkins/ci/workspace/chipset_pipeline_release/opensource/component_code/vendor/huawei/extra/build/build_script/kirin_kernel_release/kernel/include/asm-generic/int-ll64.h"
	.file	24 "/mnt/disk/jenkins/ci/workspace/chipset_pipeline_release/opensource/component_code/vendor/huawei/extra/build/build_script/kirin_kernel_release/kernel/include/linux/sched.h"
	.file	25 "/mnt/disk/jenkins/ci/workspace/chipset_pipeline_release/opensource/component_code/vendor/huawei/extra/build/build_script/kirin_kernel_release/kernel/include/uapi/asm-generic/posix_types.h"
	.file	26 "/mnt/disk/jenkins/ci/workspace/chipset_pipeline_release/opensource/component_code/vendor/huawei/extra/build/build_script/kirin_kernel_release/kernel/include/linux/llist.h"
	.file	27 "/mnt/disk/jenkins/ci/workspace/chipset_pipeline_release/opensource/component_code/vendor/huawei/extra/build/build_script/kirin_kernel_release/kernel/include/linux/rbtree.h"
	.file	28 "/mnt/disk/jenkins/ci/workspace/chipset_pipeline_release/opensource/component_code/vendor/huawei/extra/build/build_script/kirin_kernel_release/kernel/include/linux/cpumask.h"
	.file	29 "/mnt/disk/jenkins/ci/workspace/chipset_pipeline_release/opensource/component_code/vendor/huawei/extra/build/build_script/kirin_kernel_release/kernel/arch/arm64/include/asm/spinlock_types.h"
	.file	30 "/mnt/disk/jenkins/ci/workspace/chipset_pipeline_release/opensource/component_code/vendor/huawei/extra/build/build_script/kirin_kernel_release/kernel/include/linux/spinlock_types.h"
	.file	31 "/mnt/disk/jenkins/ci/workspace/chipset_pipeline_release/opensource/component_code/vendor/huawei/extra/build/build_script/kirin_kernel_release/kernel/include/linux/timerqueue.h"
	.file	32 "/mnt/disk/jenkins/ci/workspace/chipset_pipeline_release/opensource/component_code/vendor/huawei/extra/build/build_script/kirin_kernel_release/kernel/include/linux/ktime.h"
	.file	33 "/mnt/disk/jenkins/ci/workspace/chipset_pipeline_release/opensource/component_code/vendor/huawei/extra/build/build_script/kirin_kernel_release/kernel/include/linux/seqlock.h"
	.file	34 "/mnt/disk/jenkins/ci/workspace/chipset_pipeline_release/opensource/component_code/vendor/huawei/extra/build/build_script/kirin_kernel_release/kernel/include/linux/plist.h"
	.file	35 "/mnt/disk/jenkins/ci/workspace/chipset_pipeline_release/opensource/component_code/vendor/huawei/extra/build/build_script/kirin_kernel_release/kernel/include/linux/mm_types.h"
	.file	36 "/mnt/disk/jenkins/ci/workspace/chipset_pipeline_release/opensource/component_code/vendor/huawei/extra/build/build_script/kirin_kernel_release/kernel/arch/arm64/include/asm/pgtable-types.h"
	.file	37 "/mnt/disk/jenkins/ci/workspace/chipset_pipeline_release/opensource/component_code/vendor/huawei/extra/build/build_script/kirin_kernel_release/kernel/include/asm-generic/pgtable-nop4d-hack.h"
	.file	38 "/mnt/disk/jenkins/ci/workspace/chipset_pipeline_release/opensource/component_code/vendor/huawei/extra/build/build_script/kirin_kernel_release/kernel/include/linux/uidgid.h"
	.file	39 "/mnt/disk/jenkins/ci/workspace/chipset_pipeline_release/opensource/component_code/vendor/huawei/extra/build/build_script/kirin_kernel_release/kernel/include/linux/dcache.h"
	.file	40 "/mnt/disk/jenkins/ci/workspace/chipset_pipeline_release/opensource/component_code/vendor/huawei/extra/build/build_script/kirin_kernel_release/kernel/include/linux/list_bl.h"
	.file	41 "/mnt/disk/jenkins/ci/workspace/chipset_pipeline_release/opensource/component_code/vendor/huawei/extra/build/build_script/kirin_kernel_release/kernel/include/linux/lockref.h"
	.file	42 "/mnt/disk/jenkins/ci/workspace/chipset_pipeline_release/opensource/component_code/vendor/huawei/extra/build/build_script/kirin_kernel_release/kernel/include/linux/path.h"
	.file	43 "/mnt/disk/jenkins/ci/workspace/chipset_pipeline_release/opensource/component_code/vendor/huawei/extra/build/build_script/kirin_kernel_release/kernel/include/uapi/asm-generic/int-ll64.h"
	.file	44 "/mnt/disk/jenkins/ci/workspace/chipset_pipeline_release/opensource/component_code/vendor/huawei/extra/build/build_script/kirin_kernel_release/kernel/include/linux/kobject.h"
	.file	45 "/mnt/disk/jenkins/ci/workspace/chipset_pipeline_release/opensource/component_code/vendor/huawei/extra/build/build_script/kirin_kernel_release/kernel/include/linux/sysfs.h"
	.file	46 "/mnt/disk/jenkins/ci/workspace/chipset_pipeline_release/opensource/component_code/vendor/huawei/extra/build/build_script/kirin_kernel_release/kernel/include/linux/kernfs.h"
	.file	47 "/mnt/disk/jenkins/ci/workspace/chipset_pipeline_release/opensource/component_code/vendor/huawei/extra/build/build_script/kirin_kernel_release/kernel/include/linux/radix-tree.h"
	.file	48 "/mnt/disk/jenkins/ci/workspace/chipset_pipeline_release/opensource/component_code/vendor/huawei/extra/build/build_script/kirin_kernel_release/kernel/include/linux/idr.h"
	.file	49 "/mnt/disk/jenkins/ci/workspace/chipset_pipeline_release/opensource/component_code/vendor/huawei/extra/build/build_script/kirin_kernel_release/kernel/include/linux/seq_file.h"
	.file	50 "/mnt/disk/jenkins/ci/workspace/chipset_pipeline_release/opensource/component_code/vendor/huawei/extra/build/build_script/kirin_kernel_release/kernel/include/asm-generic/atomic-long.h"
	.file	51 "/mnt/disk/jenkins/ci/workspace/chipset_pipeline_release/opensource/component_code/vendor/huawei/extra/build/build_script/kirin_kernel_release/kernel/include/linux/mutex.h"
	.file	52 "/mnt/disk/jenkins/ci/workspace/chipset_pipeline_release/opensource/component_code/vendor/huawei/extra/build/build_script/kirin_kernel_release/kernel/include/linux/osq_lock.h"
	.file	53 "/mnt/disk/jenkins/ci/workspace/chipset_pipeline_release/opensource/component_code/vendor/huawei/extra/build/build_script/kirin_kernel_release/kernel/include/linux/wait.h"
	.file	54 "/mnt/disk/jenkins/ci/workspace/chipset_pipeline_release/opensource/component_code/vendor/huawei/extra/build/build_script/kirin_kernel_release/kernel/include/linux/nfs_fs_i.h"
	.file	55 "/mnt/disk/jenkins/ci/workspace/chipset_pipeline_release/opensource/component_code/vendor/huawei/extra/build/build_script/kirin_kernel_release/kernel/include/linux/rwlock_types.h"
	.file	56 "/mnt/disk/jenkins/ci/workspace/chipset_pipeline_release/opensource/component_code/vendor/huawei/extra/build/build_script/kirin_kernel_release/kernel/include/linux/cred.h"
	.file	57 "/mnt/disk/jenkins/ci/workspace/chipset_pipeline_release/opensource/component_code/vendor/huawei/extra/build/build_script/kirin_kernel_release/kernel/include/linux/capability.h"
	.file	58 "/mnt/disk/jenkins/ci/workspace/chipset_pipeline_release/opensource/component_code/vendor/huawei/extra/build/build_script/kirin_kernel_release/kernel/include/linux/refcount.h"
	.file	59 "/mnt/disk/jenkins/ci/workspace/chipset_pipeline_release/opensource/component_code/vendor/huawei/extra/build/build_script/kirin_kernel_release/kernel/include/linux/key.h"
	.file	60 "/mnt/disk/jenkins/ci/workspace/chipset_pipeline_release/opensource/component_code/vendor/huawei/extra/build/build_script/kirin_kernel_release/kernel/include/linux/rwsem.h"
	.file	61 "/mnt/disk/jenkins/ci/workspace/chipset_pipeline_release/opensource/component_code/vendor/huawei/extra/build/build_script/kirin_kernel_release/kernel/include/linux/assoc_array.h"
	.file	62 "/mnt/disk/jenkins/ci/workspace/chipset_pipeline_release/opensource/component_code/vendor/huawei/extra/build/build_script/kirin_kernel_release/kernel/include/linux/sched/user.h"
	.file	63 "/mnt/disk/jenkins/ci/workspace/chipset_pipeline_release/opensource/component_code/vendor/huawei/extra/build/build_script/kirin_kernel_release/kernel/include/linux/errseq.h"
	.file	64 "/mnt/disk/jenkins/ci/workspace/chipset_pipeline_release/opensource/component_code/vendor/huawei/extra/build/build_script/kirin_kernel_release/kernel/include/linux/kref.h"
	.file	65 "/mnt/disk/jenkins/ci/workspace/chipset_pipeline_release/opensource/component_code/vendor/huawei/extra/build/build_script/kirin_kernel_release/kernel/include/linux/completion.h"
	.file	66 "/mnt/disk/jenkins/ci/workspace/chipset_pipeline_release/opensource/component_code/vendor/huawei/extra/build/build_script/kirin_kernel_release/kernel/include/linux/export.h"
	.file	67 "/mnt/disk/jenkins/ci/workspace/chipset_pipeline_release/opensource/component_code/vendor/huawei/extra/build/build_script/kirin_kernel_release/kernel/include/linux/cfi.h"
	.file	68 "/mnt/disk/jenkins/ci/workspace/chipset_pipeline_release/opensource/component_code/vendor/huawei/extra/build/build_script/kirin_kernel_release/kernel/include/linux/moduleparam.h"
	.file	69 "/mnt/disk/jenkins/ci/workspace/chipset_pipeline_release/opensource/component_code/vendor/huawei/extra/build/build_script/kirin_kernel_release/kernel/arch/arm64/include/asm/extable.h"
	.file	70 "/mnt/disk/jenkins/ci/workspace/chipset_pipeline_release/opensource/component_code/vendor/huawei/extra/build/build_script/kirin_kernel_release/kernel/include/linux/rbtree_latch.h"
	.file	71 "/mnt/disk/jenkins/ci/workspace/chipset_pipeline_release/opensource/component_code/vendor/huawei/extra/build/build_script/kirin_kernel_release/kernel/include/uapi/linux/elf.h"
	.file	72 "/mnt/disk/jenkins/ci/workspace/chipset_pipeline_release/opensource/component_code/vendor/huawei/extra/build/build_script/kirin_kernel_release/kernel/arch/arm64/include/asm/module.h"
	.file	73 "/mnt/disk/jenkins/ci/workspace/chipset_pipeline_release/opensource/component_code/vendor/huawei/extra/build/build_script/kirin_kernel_release/kernel/include/uapi/linux/types.h"
	.file	74 "/mnt/disk/jenkins/ci/workspace/chipset_pipeline_release/opensource/component_code/vendor/huawei/extra/build/build_script/kirin_kernel_release/kernel/include/asm-generic/bug.h"
	.file	75 "/mnt/disk/jenkins/ci/workspace/chipset_pipeline_release/opensource/component_code/vendor/huawei/extra/build/build_script/kirin_kernel_release/kernel/include/linux/tracepoint-defs.h"
	.file	76 "/mnt/disk/jenkins/ci/workspace/chipset_pipeline_release/opensource/component_code/vendor/huawei/extra/build/build_script/kirin_kernel_release/kernel/include/linux/jump_label.h"
	.file	77 "/mnt/disk/jenkins/ci/workspace/chipset_pipeline_release/opensource/component_code/vendor/huawei/extra/build/build_script/kirin_kernel_release/kernel/include/linux/lockdep.h"
	.file	78 "/mnt/disk/jenkins/ci/workspace/chipset_pipeline_release/opensource/component_code/vendor/huawei/extra/build/build_script/kirin_kernel_release/kernel/include/linux/projid.h"
	.file	79 "/mnt/disk/jenkins/ci/workspace/chipset_pipeline_release/opensource/component_code/vendor/huawei/extra/build/build_script/kirin_kernel_release/kernel/include/linux/time64.h"
	.file	80 "/mnt/disk/jenkins/ci/workspace/chipset_pipeline_release/opensource/component_code/vendor/huawei/extra/build/build_script/kirin_kernel_release/kernel/include/linux/shrinker.h"
	.file	81 "/mnt/disk/jenkins/ci/workspace/chipset_pipeline_release/opensource/component_code/vendor/huawei/extra/build/build_script/kirin_kernel_release/kernel/include/linux/genhd.h"
	.file	82 "/mnt/disk/jenkins/ci/workspace/chipset_pipeline_release/opensource/component_code/vendor/huawei/extra/build/build_script/kirin_kernel_release/kernel/include/linux/pm_wakeup.h"
	.file	83 "/mnt/disk/jenkins/ci/workspace/chipset_pipeline_release/opensource/component_code/vendor/huawei/extra/build/build_script/kirin_kernel_release/kernel/include/linux/timer.h"
	.file	84 "/mnt/disk/jenkins/ci/workspace/chipset_pipeline_release/opensource/component_code/vendor/huawei/extra/build/build_script/kirin_kernel_release/kernel/include/linux/workqueue.h"
	.file	85 "/mnt/disk/jenkins/ci/workspace/chipset_pipeline_release/opensource/component_code/vendor/huawei/extra/build/build_script/kirin_kernel_release/kernel/include/linux/pinctrl/devinfo.h"
	.file	86 "/mnt/disk/jenkins/ci/workspace/chipset_pipeline_release/opensource/component_code/vendor/huawei/extra/build/build_script/kirin_kernel_release/kernel/arch/arm64/include/asm/device.h"
	.file	87 "/mnt/disk/jenkins/ci/workspace/chipset_pipeline_release/opensource/component_code/vendor/huawei/extra/build/build_script/kirin_kernel_release/kernel/include/linux/klist.h"
	.file	88 "/mnt/disk/jenkins/ci/workspace/chipset_pipeline_release/opensource/component_code/vendor/huawei/extra/build/build_script/kirin_kernel_release/kernel/include/linux/percpu-refcount.h"
	.file	89 "/mnt/disk/jenkins/ci/workspace/chipset_pipeline_release/opensource/component_code/vendor/huawei/extra/build/build_script/kirin_kernel_release/kernel/include/linux/smp.h"
	.file	90 "/mnt/disk/jenkins/ci/workspace/chipset_pipeline_release/opensource/component_code/vendor/huawei/extra/build/build_script/kirin_kernel_release/kernel/block/blk-mq.h"
	.file	91 "/mnt/disk/jenkins/ci/workspace/chipset_pipeline_release/opensource/component_code/vendor/huawei/extra/build/build_script/kirin_kernel_release/kernel/include/linux/bvec.h"
	.file	92 "/mnt/disk/jenkins/ci/workspace/chipset_pipeline_release/opensource/component_code/vendor/huawei/extra/build/build_script/kirin_kernel_release/kernel/include/uapi/linux/time.h"
	.file	93 "/mnt/disk/jenkins/ci/workspace/chipset_pipeline_release/opensource/component_code/vendor/huawei/extra/build/build_script/kirin_kernel_release/kernel/include/linux/iocontext.h"
	.file	94 "/mnt/disk/jenkins/ci/workspace/chipset_pipeline_release/opensource/component_code/vendor/huawei/extra/build/build_script/kirin_kernel_release/kernel/include/linux/bio.h"
	.file	95 "/mnt/disk/jenkins/ci/workspace/chipset_pipeline_release/opensource/component_code/vendor/huawei/extra/build/build_script/kirin_kernel_release/kernel/include/linux/mempool.h"
	.file	96 "/mnt/disk/jenkins/ci/workspace/chipset_pipeline_release/opensource/component_code/vendor/huawei/extra/build/build_script/kirin_kernel_release/kernel/include/linux/blk-mq.h"
	.file	97 "/mnt/disk/jenkins/ci/workspace/chipset_pipeline_release/opensource/component_code/vendor/huawei/extra/build/build_script/kirin_kernel_release/kernel/include/linux/sbitmap.h"
	.file	98 "/mnt/disk/jenkins/ci/workspace/chipset_pipeline_release/opensource/component_code/vendor/huawei/extra/build/build_script/kirin_kernel_release/kernel/include/linux/notifier.h"
	.file	99 "/mnt/disk/jenkins/ci/workspace/chipset_pipeline_release/opensource/component_code/vendor/huawei/extra/build/build_script/kirin_kernel_release/kernel/include/linux/srcutree.h"
	.file	100 "/mnt/disk/jenkins/ci/workspace/chipset_pipeline_release/opensource/component_code/vendor/huawei/extra/build/build_script/kirin_kernel_release/kernel/include/linux/rcu_segcblist.h"
	.file	101 "/mnt/disk/jenkins/ci/workspace/chipset_pipeline_release/opensource/component_code/vendor/huawei/extra/build/build_script/kirin_kernel_release/kernel/include/linux/backing-dev-defs.h"
	.file	102 "/mnt/disk/jenkins/ci/workspace/chipset_pipeline_release/opensource/component_code/vendor/huawei/extra/build/build_script/kirin_kernel_release/kernel/include/linux/percpu_counter.h"
	.file	103 "/mnt/disk/jenkins/ci/workspace/chipset_pipeline_release/opensource/component_code/vendor/huawei/extra/build/build_script/kirin_kernel_release/kernel/include/linux/flex_proportions.h"
	.file	104 "/mnt/disk/jenkins/ci/workspace/chipset_pipeline_release/opensource/component_code/vendor/huawei/extra/build/build_script/kirin_kernel_release/kernel/block/blk-stat.h"
	.file	105 "/mnt/disk/jenkins/ci/workspace/chipset_pipeline_release/opensource/component_code/vendor/huawei/extra/build/build_script/kirin_kernel_release/kernel/include/linux/bsg.h"
	.file	106 "/mnt/disk/jenkins/ci/workspace/chipset_pipeline_release/opensource/component_code/vendor/huawei/extra/build/build_script/kirin_kernel_release/kernel/include/linux/percpu-rwsem.h"
	.file	107 "/mnt/disk/jenkins/ci/workspace/chipset_pipeline_release/opensource/component_code/vendor/huawei/extra/build/build_script/kirin_kernel_release/kernel/include/linux/rcuwait.h"
	.file	108 "/mnt/disk/jenkins/ci/workspace/chipset_pipeline_release/opensource/component_code/vendor/huawei/extra/build/build_script/kirin_kernel_release/kernel/include/linux/uuid.h"
	.file	109 "/mnt/disk/jenkins/ci/workspace/chipset_pipeline_release/opensource/component_code/vendor/huawei/extra/build/build_script/kirin_kernel_release/kernel/include/linux/list_lru.h"
	.file	110 "/mnt/disk/jenkins/ci/workspace/chipset_pipeline_release/opensource/component_code/vendor/huawei/extra/build/build_script/kirin_kernel_release/kernel/include/linux/delayed_call.h"
	.file	111 "/mnt/disk/jenkins/ci/workspace/chipset_pipeline_release/opensource/component_code/vendor/huawei/extra/build/build_script/kirin_kernel_release/kernel/include/linux/stat.h"
	.file	112 "/mnt/disk/jenkins/ci/workspace/chipset_pipeline_release/opensource/component_code/vendor/huawei/extra/build/build_script/kirin_kernel_release/kernel/include/uapi/linux/fiemap.h"
	.file	113 "/mnt/disk/jenkins/ci/workspace/chipset_pipeline_release/opensource/component_code/vendor/huawei/extra/build/build_script/kirin_kernel_release/kernel/include/linux/mmzone.h"
	.file	114 "/mnt/disk/jenkins/ci/workspace/chipset_pipeline_release/opensource/component_code/vendor/huawei/extra/build/build_script/kirin_kernel_release/kernel/include/linux/ioport.h"
	.file	115 "/mnt/disk/jenkins/ci/workspace/chipset_pipeline_release/opensource/component_code/vendor/huawei/extra/build/build_script/kirin_kernel_release/kernel/arch/arm64/include/asm/page.h"
	.file	116 "/mnt/disk/jenkins/ci/workspace/chipset_pipeline_release/opensource/component_code/vendor/huawei/extra/build/build_script/kirin_kernel_release/kernel/include/linux/mm_types_task.h"
	.file	117 "/mnt/disk/jenkins/ci/workspace/chipset_pipeline_release/opensource/component_code/vendor/huawei/extra/build/build_script/kirin_kernel_release/kernel/arch/arm64/include/asm/mmu.h"
	.file	118 "/mnt/disk/jenkins/ci/workspace/chipset_pipeline_release/opensource/component_code/vendor/huawei/extra/build/build_script/kirin_kernel_release/kernel/include/linux/uprobes.h"
	.file	119 "/mnt/disk/jenkins/ci/workspace/chipset_pipeline_release/opensource/component_code/vendor/huawei/extra/build/build_script/kirin_kernel_release/kernel/include/linux/xreclaimer_types.h"
	.file	120 "/mnt/disk/jenkins/ci/workspace/chipset_pipeline_release/opensource/component_code/vendor/huawei/extra/build/build_script/kirin_kernel_release/kernel/arch/arm64/include/asm/compat.h"
	.file	121 "/mnt/disk/jenkins/ci/workspace/chipset_pipeline_release/opensource/component_code/vendor/huawei/extra/build/build_script/kirin_kernel_release/kernel/include/uapi/asm-generic/signal.h"
	.file	122 "/mnt/disk/jenkins/ci/workspace/chipset_pipeline_release/opensource/component_code/vendor/huawei/extra/build/build_script/kirin_kernel_release/kernel/include/linux/signal_types.h"
	.file	123 "/mnt/disk/jenkins/ci/workspace/chipset_pipeline_release/opensource/component_code/vendor/huawei/extra/build/build_script/kirin_kernel_release/kernel/include/linux/seccomp.h"
	.file	124 "/mnt/disk/jenkins/ci/workspace/chipset_pipeline_release/opensource/component_code/vendor/huawei/extra/build/build_script/kirin_kernel_release/kernel/include/uapi/asm-generic/siginfo.h"
	.file	125 "/mnt/disk/jenkins/ci/workspace/chipset_pipeline_release/opensource/component_code/vendor/huawei/extra/build/build_script/kirin_kernel_release/kernel/include/linux/task_io_accounting.h"
	.file	126 "/mnt/disk/jenkins/ci/workspace/chipset_pipeline_release/opensource/component_code/vendor/huawei/extra/build/build_script/kirin_kernel_release/kernel/include/linux/nodemask.h"
	.file	127 "/mnt/disk/jenkins/ci/workspace/chipset_pipeline_release/opensource/component_code/vendor/huawei/extra/build/build_script/kirin_kernel_release/kernel/arch/arm64/include/asm/processor.h"
	.file	128 "/mnt/disk/jenkins/ci/workspace/chipset_pipeline_release/opensource/component_code/vendor/huawei/extra/build/build_script/kirin_kernel_release/kernel/arch/arm64/include/uapi/asm/ptrace.h"
	.file	129 "/mnt/disk/jenkins/ci/workspace/chipset_pipeline_release/opensource/component_code/vendor/huawei/extra/build/build_script/kirin_kernel_release/kernel/arch/arm64/include/asm/fpsimd.h"
	.section	.text.ufs_tagset_tag_busy_iter,"ax",@progbits
	.hidden	ufs_tagset_tag_busy_iter // -- Begin function ufs_tagset_tag_busy_iter
	.globl	ufs_tagset_tag_busy_iter
	.p2align	2
	.type	ufs_tagset_tag_busy_iter,@function
ufs_tagset_tag_busy_iter:               // @ufs_tagset_tag_busy_iter
.Lfunc_begin0:
	.file	130 "/mnt/disk/jenkins/ci/workspace/chipset_pipeline_release/opensource/component_code/vendor/huawei/extra/build/build_script/kirin_kernel_release/kernel/block/mas_blk_mq_tag.c"
	.loc	130 74 0                // kernel/block/mas_blk_mq_tag.c:74:0
	.cfi_sections .debug_frame
	.cfi_startproc
// %bb.0:
	//DEBUG_VALUE: ufs_tagset_tag_busy_iter:hctx <- $x0
	//DEBUG_VALUE: ufs_tagset_tag_busy_iter:fn <- $x1
	//DEBUG_VALUE: ufs_tagset_tag_busy_iter:priv <- $x2
	str	x27, [sp, #-96]!        // 8-byte Folded Spill
	stp	x26, x25, [sp, #16]     // 16-byte Folded Spill
	stp	x24, x23, [sp, #32]     // 16-byte Folded Spill
	stp	x22, x21, [sp, #48]     // 16-byte Folded Spill
	stp	x20, x19, [sp, #64]     // 16-byte Folded Spill
	stp	x29, x30, [sp, #80]     // 16-byte Folded Spill
	add	x29, sp, #80            // =80
	.cfi_def_cfa w29, 16
	.cfi_offset w30, -8
	.cfi_offset w29, -16
	.cfi_offset w19, -24
	.cfi_offset w20, -32
	.cfi_offset w21, -40
	.cfi_offset w22, -48
	.cfi_offset w23, -56
	.cfi_offset w24, -64
	.cfi_offset w25, -72
	.cfi_offset w26, -80
	.cfi_offset w27, -96
.Ltmp0:
	.loc	130 76 35 prologue_end  // kernel/block/mas_blk_mq_tag.c:76:35
	ldr	x24, [x0, #304]
.Ltmp1:
	//DEBUG_VALUE: sbitmap_for_each_set:i <- 0
	//DEBUG_VALUE: sbitmap_for_each_set:data <- undef
	//DEBUG_VALUE: ufs_tagset_bt_for_each:iter_data <- undef
	//DEBUG_VALUE: ufs_tagset_tag_busy_iter:iter_data <- [DW_OP_deref] undef
	//DEBUG_VALUE: ufs_tagset_tag_busy_iter:tags <- $x24
	//DEBUG_VALUE: ufs_tagset_bt_for_each:bt <- [DW_OP_plus_uconst 40, DW_OP_stack_value] $x24
	//DEBUG_VALUE: sbitmap_for_each_set:sb <- [DW_OP_plus_uconst 40, DW_OP_stack_value] $x24
	//DEBUG_VALUE: ufs_tagset_bt_iter:bitmap <- [DW_OP_plus_uconst 40, DW_OP_stack_value] $x24
	//DEBUG_VALUE: ufs_tagset_bt_for_each:bt <- [DW_OP_plus_uconst 152, DW_OP_stack_value] $x24
	//DEBUG_VALUE: sbitmap_for_each_set:sb <- [DW_OP_plus_uconst 152, DW_OP_stack_value] $x24
	//DEBUG_VALUE: ufs_tagset_bt_iter:bitmap <- [DW_OP_plus_uconst 152, DW_OP_stack_value] $x24
	//DEBUG_VALUE: ufs_tagset_bt_for_each:bt <- [DW_OP_plus_uconst 96, DW_OP_stack_value] $x24
	//DEBUG_VALUE: sbitmap_for_each_set:sb <- [DW_OP_plus_uconst 96, DW_OP_stack_value] $x24
	//DEBUG_VALUE: ufs_tagset_bt_iter:bitmap <- [DW_OP_plus_uconst 96, DW_OP_stack_value] $x24
	.loc	130 0 35 is_stmt 0      // kernel/block/mas_blk_mq_tag.c:0:35
	mov	x19, x2
	mov	x20, x0
.Ltmp2:
	//DEBUG_VALUE: ufs_tagset_tag_busy_iter:priv <- $x19
	//DEBUG_VALUE: ufs_tagset_tag_busy_iter:hctx <- $x20
	mov	x21, x1
.Ltmp3:
	//DEBUG_VALUE: ufs_tagset_tag_busy_iter:fn <- $x21
	.loc	97 230 22 is_stmt 1     // kernel/include/linux/sbitmap.h:230:22
	ldr	w8, [x24, #48]
.Ltmp4:
	.loc	97 230 2 is_stmt 0      // kernel/include/linux/sbitmap.h:230:2
	cbz	w8, .LBB0_11
.Ltmp5:
// %bb.1:
	//DEBUG_VALUE: ufs_tagset_tag_busy_iter:fn <- $x21
	//DEBUG_VALUE: ufs_tagset_tag_busy_iter:hctx <- $x20
	//DEBUG_VALUE: ufs_tagset_tag_busy_iter:priv <- $x19
	//DEBUG_VALUE: ufs_tagset_bt_iter:bitmap <- [DW_OP_plus_uconst 96, DW_OP_stack_value] $x24
	//DEBUG_VALUE: sbitmap_for_each_set:sb <- [DW_OP_plus_uconst 96, DW_OP_stack_value] $x24
	//DEBUG_VALUE: ufs_tagset_bt_for_each:bt <- [DW_OP_plus_uconst 96, DW_OP_stack_value] $x24
	//DEBUG_VALUE: ufs_tagset_bt_iter:bitmap <- [DW_OP_plus_uconst 152, DW_OP_stack_value] $x24
	//DEBUG_VALUE: sbitmap_for_each_set:sb <- [DW_OP_plus_uconst 152, DW_OP_stack_value] $x24
	//DEBUG_VALUE: ufs_tagset_bt_for_each:bt <- [DW_OP_plus_uconst 152, DW_OP_stack_value] $x24
	//DEBUG_VALUE: ufs_tagset_bt_iter:bitmap <- [DW_OP_plus_uconst 40, DW_OP_stack_value] $x24
	//DEBUG_VALUE: sbitmap_for_each_set:sb <- [DW_OP_plus_uconst 40, DW_OP_stack_value] $x24
	//DEBUG_VALUE: ufs_tagset_bt_for_each:bt <- [DW_OP_plus_uconst 40, DW_OP_stack_value] $x24
	//DEBUG_VALUE: ufs_tagset_tag_busy_iter:tags <- $x24
	.loc	97 0 2                  // kernel/include/linux/sbitmap.h:0:2
	mov	x25, xzr
.Ltmp6:
.LBB0_2:                                // =>This Loop Header: Depth=1
                                        //     Child Loop BB0_5 Depth 2
	//DEBUG_VALUE: ufs_tagset_tag_busy_iter:fn <- $x21
	//DEBUG_VALUE: ufs_tagset_tag_busy_iter:hctx <- $x20
	//DEBUG_VALUE: ufs_tagset_tag_busy_iter:priv <- $x19
	//DEBUG_VALUE: sbitmap_for_each_set:sb <- [DW_OP_plus_uconst 40, DW_OP_stack_value] $x24
	//DEBUG_VALUE: ufs_tagset_bt_for_each:bt <- [DW_OP_plus_uconst 40, DW_OP_stack_value] $x24
	//DEBUG_VALUE: ufs_tagset_tag_busy_iter:tags <- $x24
	//DEBUG_VALUE: sbitmap_for_each_set:i <- $x25
	.loc	97 231 36 is_stmt 1     // kernel/include/linux/sbitmap.h:231:36
	ldr	x8, [x24, #56]
.Ltmp7:
	.loc	97 234 14               // kernel/include/linux/sbitmap.h:234:14
	add	x22, x8, x25, lsl #6
	ldr	x8, [x22]
.Ltmp8:
	.loc	97 234 7 is_stmt 0      // kernel/include/linux/sbitmap.h:234:7
	cbz	x8, .LBB0_10
.Ltmp9:
// %bb.3:                               //   in Loop: Header=BB0_2 Depth=1
	//DEBUG_VALUE: sbitmap_for_each_set:i <- $x25
	//DEBUG_VALUE: ufs_tagset_tag_busy_iter:fn <- $x21
	//DEBUG_VALUE: ufs_tagset_tag_busy_iter:hctx <- $x20
	//DEBUG_VALUE: ufs_tagset_tag_busy_iter:priv <- $x19
	//DEBUG_VALUE: sbitmap_for_each_set:sb <- [DW_OP_plus_uconst 40, DW_OP_stack_value] $x24
	//DEBUG_VALUE: ufs_tagset_bt_for_each:bt <- [DW_OP_plus_uconst 40, DW_OP_stack_value] $x24
	//DEBUG_VALUE: ufs_tagset_tag_busy_iter:tags <- $x24
	//DEBUG_VALUE: nr <- 0
	.loc	97 240 42 is_stmt 1     // kernel/include/linux/sbitmap.h:240:42
	mov	x26, x22
.Ltmp10:
	.loc	97 238 18               // kernel/include/linux/sbitmap.h:238:18
	ldr	w27, [x24, #44]
.Ltmp11:
	.loc	97 240 42               // kernel/include/linux/sbitmap.h:240:42
	ldr	x1, [x26, #8]!
	.loc	97 240 9 is_stmt 0      // kernel/include/linux/sbitmap.h:240:9
	mov	x0, x22
	mov	x2, xzr
	bl	find_next_bit
.Ltmp12:
	.loc	97 241 20 is_stmt 1     // kernel/include/linux/sbitmap.h:241:20
	ldr	x1, [x26]
.Ltmp13:
	.loc	97 240 9                // kernel/include/linux/sbitmap.h:240:9
	mov	x23, x0
.Ltmp14:
	//DEBUG_VALUE: nr <- undef
	.loc	97 241 8                // kernel/include/linux/sbitmap.h:241:8
	cmp	x1, w23, uxtw
	b.ls	.LBB0_10
.Ltmp15:
// %bb.4:                               //   in Loop: Header=BB0_2 Depth=1
	//DEBUG_VALUE: sbitmap_for_each_set:i <- $x25
	//DEBUG_VALUE: ufs_tagset_tag_busy_iter:fn <- $x21
	//DEBUG_VALUE: ufs_tagset_tag_busy_iter:hctx <- $x20
	//DEBUG_VALUE: ufs_tagset_tag_busy_iter:priv <- $x19
	//DEBUG_VALUE: sbitmap_for_each_set:sb <- [DW_OP_plus_uconst 40, DW_OP_stack_value] $x24
	//DEBUG_VALUE: ufs_tagset_bt_for_each:bt <- [DW_OP_plus_uconst 40, DW_OP_stack_value] $x24
	//DEBUG_VALUE: ufs_tagset_tag_busy_iter:tags <- $x24
	.loc	97 0 8 is_stmt 0        // kernel/include/linux/sbitmap.h:0:8
	lsl	w27, w25, w27
.Ltmp16:
	//DEBUG_VALUE: off <- $w27
.LBB0_5:                                //   Parent Loop BB0_2 Depth=1
                                        // =>  This Inner Loop Header: Depth=2
	//DEBUG_VALUE: off <- $w27
	//DEBUG_VALUE: sbitmap_for_each_set:i <- $x25
	//DEBUG_VALUE: ufs_tagset_tag_busy_iter:fn <- $x21
	//DEBUG_VALUE: ufs_tagset_tag_busy_iter:hctx <- $x20
	//DEBUG_VALUE: ufs_tagset_tag_busy_iter:priv <- $x19
	//DEBUG_VALUE: sbitmap_for_each_set:sb <- [DW_OP_plus_uconst 40, DW_OP_stack_value] $x24
	//DEBUG_VALUE: ufs_tagset_bt_for_each:bt <- [DW_OP_plus_uconst 40, DW_OP_stack_value] $x24
	//DEBUG_VALUE: ufs_tagset_tag_busy_iter:tags <- $x24
	//DEBUG_VALUE: nr <- $w23
	//DEBUG_VALUE: nr <- [DW_OP_plus_uconst 1, DW_OP_stack_value] $w23
	.loc	130 46 35 is_stmt 1     // kernel/block/mas_blk_mq_tag.c:46:35
	ldr	x8, [x20, #304]
.Ltmp17:
	//DEBUG_VALUE: ufs_tagset_bt_iter:rq <- 0
	//DEBUG_VALUE: ufs_tagset_bt_iter:tags <- $x8
	.loc	97 244 20               // kernel/include/linux/sbitmap.h:244:20
	add	w9, w27, w23
.Ltmp18:
	//DEBUG_VALUE: ufs_tagset_bt_iter:hctx <- $x20
	//DEBUG_VALUE: ufs_tagset_bt_iter:iter_data <- undef
	//DEBUG_VALUE: ufs_tagset_bt_iter:data <- undef
	//DEBUG_VALUE: ufs_tagset_bt_iter:bitnr <- $w9
	.loc	130 54 13               // kernel/block/mas_blk_mq_tag.c:54:13
	ldr	x8, [x8, #208]
.Ltmp19:
	.loc	130 54 7 is_stmt 0      // kernel/block/mas_blk_mq_tag.c:54:7
	ldr	x8, [x8, w9, uxtw #3]
.Ltmp20:
	//DEBUG_VALUE: ufs_tagset_bt_iter:rq <- $x8
	//DEBUG_VALUE: ufs_tagset_bt_iter:rq <- 0
	.loc	130 60 9 is_stmt 1      // kernel/block/mas_blk_mq_tag.c:60:9
	cbz	x8, .LBB0_9
.Ltmp21:
// %bb.6:                               //   in Loop: Header=BB0_5 Depth=2
	//DEBUG_VALUE: ufs_tagset_bt_iter:bitnr <- $w9
	//DEBUG_VALUE: ufs_tagset_bt_iter:hctx <- $x20
	//DEBUG_VALUE: nr <- $w23
	//DEBUG_VALUE: off <- $w27
	//DEBUG_VALUE: sbitmap_for_each_set:i <- $x25
	//DEBUG_VALUE: ufs_tagset_tag_busy_iter:fn <- $x21
	//DEBUG_VALUE: ufs_tagset_tag_busy_iter:hctx <- $x20
	//DEBUG_VALUE: ufs_tagset_tag_busy_iter:priv <- $x19
	//DEBUG_VALUE: sbitmap_for_each_set:sb <- [DW_OP_plus_uconst 40, DW_OP_stack_value] $x24
	//DEBUG_VALUE: ufs_tagset_bt_for_each:bt <- [DW_OP_plus_uconst 40, DW_OP_stack_value] $x24
	//DEBUG_VALUE: ufs_tagset_tag_busy_iter:tags <- $x24
	.loc	130 60 33 is_stmt 0     // kernel/block/mas_blk_mq_tag.c:60:33
	cbz	x21, .LBB0_9
.Ltmp22:
// %bb.7:                               //   in Loop: Header=BB0_5 Depth=2
	//DEBUG_VALUE: ufs_tagset_bt_iter:bitnr <- $w9
	//DEBUG_VALUE: ufs_tagset_bt_iter:hctx <- $x20
	//DEBUG_VALUE: nr <- $w23
	//DEBUG_VALUE: off <- $w27
	//DEBUG_VALUE: sbitmap_for_each_set:i <- $x25
	//DEBUG_VALUE: ufs_tagset_tag_busy_iter:fn <- $x21
	//DEBUG_VALUE: ufs_tagset_tag_busy_iter:hctx <- $x20
	//DEBUG_VALUE: ufs_tagset_tag_busy_iter:priv <- $x19
	//DEBUG_VALUE: sbitmap_for_each_set:sb <- [DW_OP_plus_uconst 40, DW_OP_stack_value] $x24
	//DEBUG_VALUE: ufs_tagset_bt_for_each:bt <- [DW_OP_plus_uconst 40, DW_OP_stack_value] $x24
	//DEBUG_VALUE: ufs_tagset_tag_busy_iter:tags <- $x24
	.loc	130 0 0                 // kernel/block/mas_blk_mq_tag.c:0:0
	ldr	x9, [x8, #64]
.Ltmp23:
	ldr	x10, [x20, #192]
	.loc	130 60 33               // kernel/block/mas_blk_mq_tag.c:60:33
	cmp	x9, x10
	b.ne	.LBB0_9
.Ltmp24:
// %bb.8:                               //   in Loop: Header=BB0_5 Depth=2
	//DEBUG_VALUE: ufs_tagset_bt_iter:hctx <- $x20
	//DEBUG_VALUE: nr <- $w23
	//DEBUG_VALUE: off <- $w27
	//DEBUG_VALUE: sbitmap_for_each_set:i <- $x25
	//DEBUG_VALUE: ufs_tagset_tag_busy_iter:fn <- $x21
	//DEBUG_VALUE: ufs_tagset_tag_busy_iter:hctx <- $x20
	//DEBUG_VALUE: ufs_tagset_tag_busy_iter:priv <- $x19
	//DEBUG_VALUE: sbitmap_for_each_set:sb <- [DW_OP_plus_uconst 40, DW_OP_stack_value] $x24
	//DEBUG_VALUE: ufs_tagset_bt_for_each:bt <- [DW_OP_plus_uconst 40, DW_OP_stack_value] $x24
	//DEBUG_VALUE: ufs_tagset_tag_busy_iter:tags <- $x24
	.loc	130 61 3 is_stmt 1      // kernel/block/mas_blk_mq_tag.c:61:3
	mov	x0, x20
	mov	x1, x8
	mov	x2, x19
	mov	w3, wzr
	blr	x21
.Ltmp25:
	.loc	97 240 42               // kernel/include/linux/sbitmap.h:240:42
	ldr	x1, [x26]
.Ltmp26:
.LBB0_9:                                //   in Loop: Header=BB0_5 Depth=2
	//DEBUG_VALUE: nr <- $w23
	//DEBUG_VALUE: off <- $w27
	//DEBUG_VALUE: sbitmap_for_each_set:i <- $x25
	//DEBUG_VALUE: ufs_tagset_tag_busy_iter:fn <- $x21
	//DEBUG_VALUE: ufs_tagset_tag_busy_iter:hctx <- $x20
	//DEBUG_VALUE: ufs_tagset_tag_busy_iter:priv <- $x19
	//DEBUG_VALUE: sbitmap_for_each_set:sb <- [DW_OP_plus_uconst 40, DW_OP_stack_value] $x24
	//DEBUG_VALUE: ufs_tagset_bt_for_each:bt <- [DW_OP_plus_uconst 40, DW_OP_stack_value] $x24
	//DEBUG_VALUE: ufs_tagset_tag_busy_iter:tags <- $x24
	.loc	97 247 6                // kernel/include/linux/sbitmap.h:247:6
	add	w2, w23, #1             // =1
	.loc	97 240 9                // kernel/include/linux/sbitmap.h:240:9
	mov	x0, x22
	bl	find_next_bit
.Ltmp27:
	.loc	97 241 20               // kernel/include/linux/sbitmap.h:241:20
	ldr	x1, [x26]
.Ltmp28:
	.loc	97 240 9                // kernel/include/linux/sbitmap.h:240:9
	mov	x23, x0
.Ltmp29:
	//DEBUG_VALUE: nr <- undef
	.loc	97 241 8                // kernel/include/linux/sbitmap.h:241:8
	cmp	x1, w23, uxtw
	b.hi	.LBB0_5
.Ltmp30:
.LBB0_10:                               //   in Loop: Header=BB0_2 Depth=1
	//DEBUG_VALUE: sbitmap_for_each_set:i <- $x25
	//DEBUG_VALUE: ufs_tagset_tag_busy_iter:fn <- $x21
	//DEBUG_VALUE: ufs_tagset_tag_busy_iter:hctx <- $x20
	//DEBUG_VALUE: ufs_tagset_tag_busy_iter:priv <- $x19
	//DEBUG_VALUE: sbitmap_for_each_set:sb <- [DW_OP_plus_uconst 40, DW_OP_stack_value] $x24
	//DEBUG_VALUE: ufs_tagset_bt_for_each:bt <- [DW_OP_plus_uconst 40, DW_OP_stack_value] $x24
	//DEBUG_VALUE: ufs_tagset_tag_busy_iter:tags <- $x24
	.loc	97 230 22               // kernel/include/linux/sbitmap.h:230:22
	ldr	w8, [x24, #48]
	.loc	97 230 31 is_stmt 0     // kernel/include/linux/sbitmap.h:230:31
	add	x25, x25, #1            // =1
.Ltmp31:
	//DEBUG_VALUE: sbitmap_for_each_set:i <- [DW_OP_plus_uconst 1, DW_OP_stack_value] undef
	.loc	97 230 2                // kernel/include/linux/sbitmap.h:230:2
	cmp	x25, x8
	b.lo	.LBB0_2
.Ltmp32:
.LBB0_11:
	//DEBUG_VALUE: ufs_tagset_tag_busy_iter:fn <- $x21
	//DEBUG_VALUE: ufs_tagset_tag_busy_iter:hctx <- $x20
	//DEBUG_VALUE: ufs_tagset_tag_busy_iter:priv <- $x19
	//DEBUG_VALUE: ufs_tagset_tag_busy_iter:tags <- $x24
	.loc	130 86 12 is_stmt 1     // kernel/block/mas_blk_mq_tag.c:86:12
	ldr	w8, [x24, #8]
.Ltmp33:
	.loc	130 86 6 is_stmt 0      // kernel/block/mas_blk_mq_tag.c:86:6
	cbz	w8, .LBB0_23
.Ltmp34:
// %bb.12:
	//DEBUG_VALUE: ufs_tagset_tag_busy_iter:fn <- $x21
	//DEBUG_VALUE: ufs_tagset_tag_busy_iter:hctx <- $x20
	//DEBUG_VALUE: ufs_tagset_tag_busy_iter:priv <- $x19
	//DEBUG_VALUE: ufs_tagset_tag_busy_iter:tags <- $x24
	//DEBUG_VALUE: ufs_tagset_tag_busy_iter:iter_data <- [DW_OP_deref] undef
	//DEBUG_VALUE: ufs_tagset_bt_for_each:iter_data <- undef
	//DEBUG_VALUE: sbitmap_for_each_set:data <- undef
	//DEBUG_VALUE: sbitmap_for_each_set:i <- 0
	.loc	97 230 22 is_stmt 1     // kernel/include/linux/sbitmap.h:230:22
	ldr	w8, [x24, #160]
.Ltmp35:
	.loc	97 230 2 is_stmt 0      // kernel/include/linux/sbitmap.h:230:2
	cbz	w8, .LBB0_23
.Ltmp36:
// %bb.13:
	//DEBUG_VALUE: ufs_tagset_tag_busy_iter:fn <- $x21
	//DEBUG_VALUE: ufs_tagset_tag_busy_iter:hctx <- $x20
	//DEBUG_VALUE: ufs_tagset_tag_busy_iter:priv <- $x19
	//DEBUG_VALUE: ufs_tagset_tag_busy_iter:tags <- $x24
	.loc	97 0 2                  // kernel/include/linux/sbitmap.h:0:2
	mov	x25, xzr
.Ltmp37:
.LBB0_14:                               // =>This Loop Header: Depth=1
                                        //     Child Loop BB0_17 Depth 2
	//DEBUG_VALUE: ufs_tagset_tag_busy_iter:fn <- $x21
	//DEBUG_VALUE: ufs_tagset_tag_busy_iter:hctx <- $x20
	//DEBUG_VALUE: ufs_tagset_tag_busy_iter:priv <- $x19
	//DEBUG_VALUE: ufs_tagset_tag_busy_iter:tags <- $x24
	//DEBUG_VALUE: sbitmap_for_each_set:i <- $x25
	.loc	97 231 36 is_stmt 1     // kernel/include/linux/sbitmap.h:231:36
	ldr	x8, [x24, #168]
.Ltmp38:
	.loc	97 234 14               // kernel/include/linux/sbitmap.h:234:14
	add	x22, x8, x25, lsl #6
	ldr	x8, [x22]
.Ltmp39:
	.loc	97 234 7 is_stmt 0      // kernel/include/linux/sbitmap.h:234:7
	cbz	x8, .LBB0_22
.Ltmp40:
// %bb.15:                              //   in Loop: Header=BB0_14 Depth=1
	//DEBUG_VALUE: sbitmap_for_each_set:i <- $x25
	//DEBUG_VALUE: ufs_tagset_tag_busy_iter:fn <- $x21
	//DEBUG_VALUE: ufs_tagset_tag_busy_iter:hctx <- $x20
	//DEBUG_VALUE: ufs_tagset_tag_busy_iter:priv <- $x19
	//DEBUG_VALUE: ufs_tagset_tag_busy_iter:tags <- $x24
	//DEBUG_VALUE: nr <- 0
	.loc	97 240 42 is_stmt 1     // kernel/include/linux/sbitmap.h:240:42
	mov	x26, x22
.Ltmp41:
	.loc	97 238 18               // kernel/include/linux/sbitmap.h:238:18
	ldr	w27, [x24, #156]
.Ltmp42:
	.loc	97 240 42               // kernel/include/linux/sbitmap.h:240:42
	ldr	x1, [x26, #8]!
	.loc	97 240 9 is_stmt 0      // kernel/include/linux/sbitmap.h:240:9
	mov	x0, x22
	mov	x2, xzr
	bl	find_next_bit
.Ltmp43:
	.loc	97 241 20 is_stmt 1     // kernel/include/linux/sbitmap.h:241:20
	ldr	x1, [x26]
.Ltmp44:
	.loc	97 240 9                // kernel/include/linux/sbitmap.h:240:9
	mov	x23, x0
.Ltmp45:
	//DEBUG_VALUE: nr <- undef
	.loc	97 241 8                // kernel/include/linux/sbitmap.h:241:8
	cmp	x1, w23, uxtw
	b.ls	.LBB0_22
.Ltmp46:
// %bb.16:                              //   in Loop: Header=BB0_14 Depth=1
	//DEBUG_VALUE: sbitmap_for_each_set:i <- $x25
	//DEBUG_VALUE: ufs_tagset_tag_busy_iter:fn <- $x21
	//DEBUG_VALUE: ufs_tagset_tag_busy_iter:hctx <- $x20
	//DEBUG_VALUE: ufs_tagset_tag_busy_iter:priv <- $x19
	//DEBUG_VALUE: ufs_tagset_tag_busy_iter:tags <- $x24
	.loc	97 0 8 is_stmt 0        // kernel/include/linux/sbitmap.h:0:8
	lsl	w27, w25, w27
.Ltmp47:
	//DEBUG_VALUE: off <- $w27
.LBB0_17:                               //   Parent Loop BB0_14 Depth=1
                                        // =>  This Inner Loop Header: Depth=2
	//DEBUG_VALUE: off <- $w27
	//DEBUG_VALUE: sbitmap_for_each_set:i <- $x25
	//DEBUG_VALUE: ufs_tagset_tag_busy_iter:fn <- $x21
	//DEBUG_VALUE: ufs_tagset_tag_busy_iter:hctx <- $x20
	//DEBUG_VALUE: ufs_tagset_tag_busy_iter:priv <- $x19
	//DEBUG_VALUE: ufs_tagset_tag_busy_iter:tags <- $x24
	//DEBUG_VALUE: nr <- $w23
	//DEBUG_VALUE: nr <- [DW_OP_plus_uconst 1, DW_OP_stack_value] $w23
	.loc	130 46 35 is_stmt 1     // kernel/block/mas_blk_mq_tag.c:46:35
	ldr	x8, [x20, #304]
.Ltmp48:
	//DEBUG_VALUE: ufs_tagset_bt_iter:rq <- 0
	//DEBUG_VALUE: ufs_tagset_bt_iter:tags <- $x8
	.loc	97 244 20               // kernel/include/linux/sbitmap.h:244:20
	add	w10, w27, w23
.Ltmp49:
	//DEBUG_VALUE: ufs_tagset_bt_iter:hctx <- $x20
	//DEBUG_VALUE: ufs_tagset_bt_iter:iter_data <- undef
	//DEBUG_VALUE: ufs_tagset_bt_iter:data <- undef
	//DEBUG_VALUE: ufs_tagset_bt_iter:bitnr <- $w10
	.loc	130 52 18               // kernel/block/mas_blk_mq_tag.c:52:18
	ldr	w9, [x8, #20]
.Ltmp50:
	.loc	130 54 13               // kernel/block/mas_blk_mq_tag.c:54:13
	ldr	x8, [x8, #208]
.Ltmp51:
	.loc	130 52 9                // kernel/block/mas_blk_mq_tag.c:52:9
	add	w9, w10, w9
.Ltmp52:
	//DEBUG_VALUE: ufs_tagset_bt_iter:bitnr <- $w9
	//DEBUG_VALUE: ufs_tagset_bt_iter:rq <- 0
	.loc	130 54 7                // kernel/block/mas_blk_mq_tag.c:54:7
	ldr	x8, [x8, w9, uxtw #3]
.Ltmp53:
	//DEBUG_VALUE: ufs_tagset_bt_iter:rq <- $x8
	.loc	130 60 9                // kernel/block/mas_blk_mq_tag.c:60:9
	cbz	x8, .LBB0_21
.Ltmp54:
// %bb.18:                              //   in Loop: Header=BB0_17 Depth=2
	//DEBUG_VALUE: ufs_tagset_bt_iter:rq <- $x8
	//DEBUG_VALUE: ufs_tagset_bt_iter:bitnr <- $w9
	//DEBUG_VALUE: ufs_tagset_bt_iter:hctx <- $x20
	//DEBUG_VALUE: nr <- $w23
	//DEBUG_VALUE: off <- $w27
	//DEBUG_VALUE: sbitmap_for_each_set:i <- $x25
	//DEBUG_VALUE: ufs_tagset_tag_busy_iter:fn <- $x21
	//DEBUG_VALUE: ufs_tagset_tag_busy_iter:hctx <- $x20
	//DEBUG_VALUE: ufs_tagset_tag_busy_iter:priv <- $x19
	//DEBUG_VALUE: ufs_tagset_tag_busy_iter:tags <- $x24
	.loc	130 60 33 is_stmt 0     // kernel/block/mas_blk_mq_tag.c:60:33
	cbz	x21, .LBB0_21
.Ltmp55:
// %bb.19:                              //   in Loop: Header=BB0_17 Depth=2
	//DEBUG_VALUE: ufs_tagset_bt_iter:rq <- $x8
	//DEBUG_VALUE: ufs_tagset_bt_iter:bitnr <- $w9
	//DEBUG_VALUE: ufs_tagset_bt_iter:hctx <- $x20
	//DEBUG_VALUE: nr <- $w23
	//DEBUG_VALUE: off <- $w27
	//DEBUG_VALUE: sbitmap_for_each_set:i <- $x25
	//DEBUG_VALUE: ufs_tagset_tag_busy_iter:fn <- $x21
	//DEBUG_VALUE: ufs_tagset_tag_busy_iter:hctx <- $x20
	//DEBUG_VALUE: ufs_tagset_tag_busy_iter:priv <- $x19
	//DEBUG_VALUE: ufs_tagset_tag_busy_iter:tags <- $x24
	.loc	130 0 0                 // kernel/block/mas_blk_mq_tag.c:0:0
	ldr	x9, [x8, #64]
.Ltmp56:
	ldr	x10, [x20, #192]
	.loc	130 60 33               // kernel/block/mas_blk_mq_tag.c:60:33
	cmp	x9, x10
	b.ne	.LBB0_21
.Ltmp57:
// %bb.20:                              //   in Loop: Header=BB0_17 Depth=2
	//DEBUG_VALUE: ufs_tagset_bt_iter:rq <- $x8
	//DEBUG_VALUE: ufs_tagset_bt_iter:hctx <- $x20
	//DEBUG_VALUE: nr <- $w23
	//DEBUG_VALUE: off <- $w27
	//DEBUG_VALUE: sbitmap_for_each_set:i <- $x25
	//DEBUG_VALUE: ufs_tagset_tag_busy_iter:fn <- $x21
	//DEBUG_VALUE: ufs_tagset_tag_busy_iter:hctx <- $x20
	//DEBUG_VALUE: ufs_tagset_tag_busy_iter:priv <- $x19
	//DEBUG_VALUE: ufs_tagset_tag_busy_iter:tags <- $x24
	.loc	130 61 3 is_stmt 1      // kernel/block/mas_blk_mq_tag.c:61:3
	mov	x0, x20
	mov	x1, x8
	mov	x2, x19
	mov	w3, wzr
	blr	x21
.Ltmp58:
	.loc	97 240 42               // kernel/include/linux/sbitmap.h:240:42
	ldr	x1, [x26]
.Ltmp59:
.LBB0_21:                               //   in Loop: Header=BB0_17 Depth=2
	//DEBUG_VALUE: nr <- $w23
	//DEBUG_VALUE: off <- $w27
	//DEBUG_VALUE: sbitmap_for_each_set:i <- $x25
	//DEBUG_VALUE: ufs_tagset_tag_busy_iter:fn <- $x21
	//DEBUG_VALUE: ufs_tagset_tag_busy_iter:hctx <- $x20
	//DEBUG_VALUE: ufs_tagset_tag_busy_iter:priv <- $x19
	//DEBUG_VALUE: ufs_tagset_tag_busy_iter:tags <- $x24
	.loc	97 247 6                // kernel/include/linux/sbitmap.h:247:6
	add	w2, w23, #1             // =1
	.loc	97 240 9                // kernel/include/linux/sbitmap.h:240:9
	mov	x0, x22
	bl	find_next_bit
.Ltmp60:
	.loc	97 241 20               // kernel/include/linux/sbitmap.h:241:20
	ldr	x1, [x26]
.Ltmp61:
	.loc	97 240 9                // kernel/include/linux/sbitmap.h:240:9
	mov	x23, x0
.Ltmp62:
	//DEBUG_VALUE: nr <- undef
	.loc	97 241 8                // kernel/include/linux/sbitmap.h:241:8
	cmp	x1, w23, uxtw
	b.hi	.LBB0_17
.Ltmp63:
.LBB0_22:                               //   in Loop: Header=BB0_14 Depth=1
	//DEBUG_VALUE: sbitmap_for_each_set:i <- $x25
	//DEBUG_VALUE: ufs_tagset_tag_busy_iter:fn <- $x21
	//DEBUG_VALUE: ufs_tagset_tag_busy_iter:hctx <- $x20
	//DEBUG_VALUE: ufs_tagset_tag_busy_iter:priv <- $x19
	//DEBUG_VALUE: ufs_tagset_tag_busy_iter:tags <- $x24
	.loc	97 230 22               // kernel/include/linux/sbitmap.h:230:22
	ldr	w8, [x24, #160]
	.loc	97 230 31 is_stmt 0     // kernel/include/linux/sbitmap.h:230:31
	add	x25, x25, #1            // =1
.Ltmp64:
	//DEBUG_VALUE: sbitmap_for_each_set:i <- [DW_OP_plus_uconst 1, DW_OP_stack_value] undef
	.loc	97 230 2                // kernel/include/linux/sbitmap.h:230:2
	cmp	x25, x8
	b.lo	.LBB0_14
.Ltmp65:
.LBB0_23:
	//DEBUG_VALUE: ufs_tagset_tag_busy_iter:fn <- $x21
	//DEBUG_VALUE: ufs_tagset_tag_busy_iter:hctx <- $x20
	//DEBUG_VALUE: ufs_tagset_tag_busy_iter:priv <- $x19
	//DEBUG_VALUE: ufs_tagset_tag_busy_iter:tags <- $x24
	.loc	130 91 12 is_stmt 1     // kernel/block/mas_blk_mq_tag.c:91:12
	ldr	w8, [x24, #4]
.Ltmp66:
	.loc	130 91 6 is_stmt 0      // kernel/block/mas_blk_mq_tag.c:91:6
	cbz	w8, .LBB0_35
.Ltmp67:
// %bb.24:
	//DEBUG_VALUE: ufs_tagset_tag_busy_iter:fn <- $x21
	//DEBUG_VALUE: ufs_tagset_tag_busy_iter:hctx <- $x20
	//DEBUG_VALUE: ufs_tagset_tag_busy_iter:priv <- $x19
	//DEBUG_VALUE: ufs_tagset_tag_busy_iter:tags <- $x24
	//DEBUG_VALUE: ufs_tagset_tag_busy_iter:iter_data <- [DW_OP_deref] undef
	//DEBUG_VALUE: ufs_tagset_bt_for_each:iter_data <- undef
	//DEBUG_VALUE: sbitmap_for_each_set:data <- undef
	//DEBUG_VALUE: sbitmap_for_each_set:i <- 0
	.loc	97 230 22 is_stmt 1     // kernel/include/linux/sbitmap.h:230:22
	ldr	w8, [x24, #104]
.Ltmp68:
	.loc	97 230 2 is_stmt 0      // kernel/include/linux/sbitmap.h:230:2
	cbz	w8, .LBB0_35
.Ltmp69:
// %bb.25:
	//DEBUG_VALUE: ufs_tagset_tag_busy_iter:fn <- $x21
	//DEBUG_VALUE: ufs_tagset_tag_busy_iter:hctx <- $x20
	//DEBUG_VALUE: ufs_tagset_tag_busy_iter:priv <- $x19
	//DEBUG_VALUE: ufs_tagset_tag_busy_iter:tags <- $x24
	.loc	97 0 2                  // kernel/include/linux/sbitmap.h:0:2
	mov	x25, xzr
.Ltmp70:
.LBB0_26:                               // =>This Loop Header: Depth=1
                                        //     Child Loop BB0_29 Depth 2
	//DEBUG_VALUE: ufs_tagset_tag_busy_iter:fn <- $x21
	//DEBUG_VALUE: ufs_tagset_tag_busy_iter:hctx <- $x20
	//DEBUG_VALUE: ufs_tagset_tag_busy_iter:priv <- $x19
	//DEBUG_VALUE: ufs_tagset_tag_busy_iter:tags <- $x24
	//DEBUG_VALUE: sbitmap_for_each_set:i <- $x25
	.loc	97 231 36 is_stmt 1     // kernel/include/linux/sbitmap.h:231:36
	ldr	x8, [x24, #112]
.Ltmp71:
	.loc	97 234 14               // kernel/include/linux/sbitmap.h:234:14
	add	x22, x8, x25, lsl #6
	ldr	x8, [x22]
.Ltmp72:
	.loc	97 234 7 is_stmt 0      // kernel/include/linux/sbitmap.h:234:7
	cbz	x8, .LBB0_34
.Ltmp73:
// %bb.27:                              //   in Loop: Header=BB0_26 Depth=1
	//DEBUG_VALUE: sbitmap_for_each_set:i <- $x25
	//DEBUG_VALUE: ufs_tagset_tag_busy_iter:fn <- $x21
	//DEBUG_VALUE: ufs_tagset_tag_busy_iter:hctx <- $x20
	//DEBUG_VALUE: ufs_tagset_tag_busy_iter:priv <- $x19
	//DEBUG_VALUE: ufs_tagset_tag_busy_iter:tags <- $x24
	//DEBUG_VALUE: nr <- 0
	.loc	97 240 42 is_stmt 1     // kernel/include/linux/sbitmap.h:240:42
	mov	x26, x22
.Ltmp74:
	.loc	97 238 18               // kernel/include/linux/sbitmap.h:238:18
	ldr	w27, [x24, #100]
.Ltmp75:
	.loc	97 240 42               // kernel/include/linux/sbitmap.h:240:42
	ldr	x1, [x26, #8]!
	.loc	97 240 9 is_stmt 0      // kernel/include/linux/sbitmap.h:240:9
	mov	x0, x22
	mov	x2, xzr
	bl	find_next_bit
.Ltmp76:
	.loc	97 241 20 is_stmt 1     // kernel/include/linux/sbitmap.h:241:20
	ldr	x1, [x26]
.Ltmp77:
	.loc	97 240 9                // kernel/include/linux/sbitmap.h:240:9
	mov	x23, x0
.Ltmp78:
	//DEBUG_VALUE: nr <- undef
	.loc	97 241 8                // kernel/include/linux/sbitmap.h:241:8
	cmp	x1, w23, uxtw
	b.ls	.LBB0_34
.Ltmp79:
// %bb.28:                              //   in Loop: Header=BB0_26 Depth=1
	//DEBUG_VALUE: sbitmap_for_each_set:i <- $x25
	//DEBUG_VALUE: ufs_tagset_tag_busy_iter:fn <- $x21
	//DEBUG_VALUE: ufs_tagset_tag_busy_iter:hctx <- $x20
	//DEBUG_VALUE: ufs_tagset_tag_busy_iter:priv <- $x19
	//DEBUG_VALUE: ufs_tagset_tag_busy_iter:tags <- $x24
	.loc	97 0 8 is_stmt 0        // kernel/include/linux/sbitmap.h:0:8
	lsl	w27, w25, w27
.Ltmp80:
	//DEBUG_VALUE: off <- $w27
.LBB0_29:                               //   Parent Loop BB0_26 Depth=1
                                        // =>  This Inner Loop Header: Depth=2
	//DEBUG_VALUE: off <- $w27
	//DEBUG_VALUE: sbitmap_for_each_set:i <- $x25
	//DEBUG_VALUE: ufs_tagset_tag_busy_iter:fn <- $x21
	//DEBUG_VALUE: ufs_tagset_tag_busy_iter:hctx <- $x20
	//DEBUG_VALUE: ufs_tagset_tag_busy_iter:priv <- $x19
	//DEBUG_VALUE: ufs_tagset_tag_busy_iter:tags <- $x24
	//DEBUG_VALUE: nr <- $w23
	//DEBUG_VALUE: nr <- [DW_OP_plus_uconst 1, DW_OP_stack_value] $w23
	.loc	130 46 35 is_stmt 1     // kernel/block/mas_blk_mq_tag.c:46:35
	ldr	x8, [x20, #304]
.Ltmp81:
	//DEBUG_VALUE: ufs_tagset_bt_iter:rq <- 0
	//DEBUG_VALUE: ufs_tagset_bt_iter:tags <- $x8
	.loc	97 244 20               // kernel/include/linux/sbitmap.h:244:20
	add	w10, w27, w23
.Ltmp82:
	//DEBUG_VALUE: ufs_tagset_bt_iter:hctx <- $x20
	//DEBUG_VALUE: ufs_tagset_bt_iter:iter_data <- undef
	//DEBUG_VALUE: ufs_tagset_bt_iter:data <- undef
	//DEBUG_VALUE: ufs_tagset_bt_iter:bitnr <- $w10
	.loc	130 50 18               // kernel/block/mas_blk_mq_tag.c:50:18
	ldr	w9, [x8, #16]
.Ltmp83:
	.loc	130 54 13               // kernel/block/mas_blk_mq_tag.c:54:13
	ldr	x8, [x8, #208]
.Ltmp84:
	.loc	130 50 9                // kernel/block/mas_blk_mq_tag.c:50:9
	add	w9, w10, w9
.Ltmp85:
	//DEBUG_VALUE: ufs_tagset_bt_iter:bitnr <- $w9
	//DEBUG_VALUE: ufs_tagset_bt_iter:rq <- 0
	.loc	130 54 7                // kernel/block/mas_blk_mq_tag.c:54:7
	ldr	x8, [x8, w9, uxtw #3]
.Ltmp86:
	//DEBUG_VALUE: ufs_tagset_bt_iter:rq <- $x8
	.loc	130 60 9                // kernel/block/mas_blk_mq_tag.c:60:9
	cbz	x8, .LBB0_33
.Ltmp87:
// %bb.30:                              //   in Loop: Header=BB0_29 Depth=2
	//DEBUG_VALUE: ufs_tagset_bt_iter:rq <- $x8
	//DEBUG_VALUE: ufs_tagset_bt_iter:bitnr <- $w9
	//DEBUG_VALUE: ufs_tagset_bt_iter:hctx <- $x20
	//DEBUG_VALUE: nr <- $w23
	//DEBUG_VALUE: off <- $w27
	//DEBUG_VALUE: sbitmap_for_each_set:i <- $x25
	//DEBUG_VALUE: ufs_tagset_tag_busy_iter:fn <- $x21
	//DEBUG_VALUE: ufs_tagset_tag_busy_iter:hctx <- $x20
	//DEBUG_VALUE: ufs_tagset_tag_busy_iter:priv <- $x19
	//DEBUG_VALUE: ufs_tagset_tag_busy_iter:tags <- $x24
	.loc	130 60 33 is_stmt 0     // kernel/block/mas_blk_mq_tag.c:60:33
	cbz	x21, .LBB0_33
.Ltmp88:
// %bb.31:                              //   in Loop: Header=BB0_29 Depth=2
	//DEBUG_VALUE: ufs_tagset_bt_iter:rq <- $x8
	//DEBUG_VALUE: ufs_tagset_bt_iter:bitnr <- $w9
	//DEBUG_VALUE: ufs_tagset_bt_iter:hctx <- $x20
	//DEBUG_VALUE: nr <- $w23
	//DEBUG_VALUE: off <- $w27
	//DEBUG_VALUE: sbitmap_for_each_set:i <- $x25
	//DEBUG_VALUE: ufs_tagset_tag_busy_iter:fn <- $x21
	//DEBUG_VALUE: ufs_tagset_tag_busy_iter:hctx <- $x20
	//DEBUG_VALUE: ufs_tagset_tag_busy_iter:priv <- $x19
	//DEBUG_VALUE: ufs_tagset_tag_busy_iter:tags <- $x24
	.loc	130 0 0                 // kernel/block/mas_blk_mq_tag.c:0:0
	ldr	x9, [x8, #64]
.Ltmp89:
	ldr	x10, [x20, #192]
	.loc	130 60 33               // kernel/block/mas_blk_mq_tag.c:60:33
	cmp	x9, x10
	b.ne	.LBB0_33
.Ltmp90:
// %bb.32:                              //   in Loop: Header=BB0_29 Depth=2
	//DEBUG_VALUE: ufs_tagset_bt_iter:rq <- $x8
	//DEBUG_VALUE: ufs_tagset_bt_iter:hctx <- $x20
	//DEBUG_VALUE: nr <- $w23
	//DEBUG_VALUE: off <- $w27
	//DEBUG_VALUE: sbitmap_for_each_set:i <- $x25
	//DEBUG_VALUE: ufs_tagset_tag_busy_iter:fn <- $x21
	//DEBUG_VALUE: ufs_tagset_tag_busy_iter:hctx <- $x20
	//DEBUG_VALUE: ufs_tagset_tag_busy_iter:priv <- $x19
	//DEBUG_VALUE: ufs_tagset_tag_busy_iter:tags <- $x24
	.loc	130 61 3 is_stmt 1      // kernel/block/mas_blk_mq_tag.c:61:3
	orr	w3, wzr, #0x1
	mov	x0, x20
	mov	x1, x8
	mov	x2, x19
	blr	x21
.Ltmp91:
	.loc	97 240 42               // kernel/include/linux/sbitmap.h:240:42
	ldr	x1, [x26]
.Ltmp92:
.LBB0_33:                               //   in Loop: Header=BB0_29 Depth=2
	//DEBUG_VALUE: nr <- $w23
	//DEBUG_VALUE: off <- $w27
	//DEBUG_VALUE: sbitmap_for_each_set:i <- $x25
	//DEBUG_VALUE: ufs_tagset_tag_busy_iter:fn <- $x21
	//DEBUG_VALUE: ufs_tagset_tag_busy_iter:hctx <- $x20
	//DEBUG_VALUE: ufs_tagset_tag_busy_iter:priv <- $x19
	//DEBUG_VALUE: ufs_tagset_tag_busy_iter:tags <- $x24
	.loc	97 247 6                // kernel/include/linux/sbitmap.h:247:6
	add	w2, w23, #1             // =1
	.loc	97 240 9                // kernel/include/linux/sbitmap.h:240:9
	mov	x0, x22
	bl	find_next_bit
.Ltmp93:
	.loc	97 241 20               // kernel/include/linux/sbitmap.h:241:20
	ldr	x1, [x26]
.Ltmp94:
	.loc	97 240 9                // kernel/include/linux/sbitmap.h:240:9
	mov	x23, x0
.Ltmp95:
	//DEBUG_VALUE: nr <- undef
	.loc	97 241 8                // kernel/include/linux/sbitmap.h:241:8
	cmp	x1, w23, uxtw
	b.hi	.LBB0_29
.Ltmp96:
.LBB0_34:                               //   in Loop: Header=BB0_26 Depth=1
	//DEBUG_VALUE: sbitmap_for_each_set:i <- $x25
	//DEBUG_VALUE: ufs_tagset_tag_busy_iter:fn <- $x21
	//DEBUG_VALUE: ufs_tagset_tag_busy_iter:hctx <- $x20
	//DEBUG_VALUE: ufs_tagset_tag_busy_iter:priv <- $x19
	//DEBUG_VALUE: ufs_tagset_tag_busy_iter:tags <- $x24
	.loc	97 230 22               // kernel/include/linux/sbitmap.h:230:22
	ldr	w8, [x24, #104]
	.loc	97 230 31 is_stmt 0     // kernel/include/linux/sbitmap.h:230:31
	add	x25, x25, #1            // =1
.Ltmp97:
	//DEBUG_VALUE: sbitmap_for_each_set:i <- [DW_OP_plus_uconst 1, DW_OP_stack_value] undef
	.loc	97 230 2                // kernel/include/linux/sbitmap.h:230:2
	cmp	x25, x8
	b.lo	.LBB0_26
.Ltmp98:
.LBB0_35:
	//DEBUG_VALUE: ufs_tagset_tag_busy_iter:fn <- $x21
	//DEBUG_VALUE: ufs_tagset_tag_busy_iter:hctx <- $x20
	//DEBUG_VALUE: ufs_tagset_tag_busy_iter:priv <- $x19
	//DEBUG_VALUE: ufs_tagset_tag_busy_iter:tags <- $x24
	.loc	130 96 1 is_stmt 1      // kernel/block/mas_blk_mq_tag.c:96:1
	ldp	x29, x30, [sp, #80]     // 16-byte Folded Reload
	ldp	x20, x19, [sp, #64]     // 16-byte Folded Reload
.Ltmp99:
	ldp	x22, x21, [sp, #48]     // 16-byte Folded Reload
.Ltmp100:
	ldp	x24, x23, [sp, #32]     // 16-byte Folded Reload
.Ltmp101:
	ldp	x26, x25, [sp, #16]     // 16-byte Folded Reload
	ldr	x27, [sp], #96          // 8-byte Folded Reload
	ret
.Ltmp102:
.Lfunc_end0:
	.size	ufs_tagset_tag_busy_iter, .Lfunc_end0-ufs_tagset_tag_busy_iter
	.cfi_endproc
                                        // -- End function
	.section	.text.ufs_tagset_bt_get,"ax",@progbits
	.hidden	ufs_tagset_bt_get       // -- Begin function ufs_tagset_bt_get
	.globl	ufs_tagset_bt_get
	.p2align	2
	.type	ufs_tagset_bt_get,@function
ufs_tagset_bt_get:                      // @ufs_tagset_bt_get
.Lfunc_begin1:
	.loc	130 243 0               // kernel/block/mas_blk_mq_tag.c:243:0
	.cfi_startproc
// %bb.0:
	//DEBUG_VALUE: ufs_tagset_bt_get:data <- $x0
	//DEBUG_VALUE: ufs_tagset_bt_get:bt <- $x1
	//DEBUG_VALUE: ufs_tagset_bt_get:hctx <- $x2
	sub	sp, sp, #144            // =144
	stp	x28, x27, [sp, #48]     // 16-byte Folded Spill
	stp	x26, x25, [sp, #64]     // 16-byte Folded Spill
	stp	x24, x23, [sp, #80]     // 16-byte Folded Spill
	stp	x22, x21, [sp, #96]     // 16-byte Folded Spill
	stp	x20, x19, [sp, #112]    // 16-byte Folded Spill
	stp	x29, x30, [sp, #128]    // 16-byte Folded Spill
	add	x29, sp, #128           // =128
	.cfi_def_cfa w29, 16
	.cfi_offset w30, -8
	.cfi_offset w29, -16
	.cfi_offset w19, -24
	.cfi_offset w20, -32
	.cfi_offset w21, -40
	.cfi_offset w22, -48
	.cfi_offset w23, -56
	.cfi_offset w24, -64
	.cfi_offset w25, -72
	.cfi_offset w26, -80
	.cfi_offset w27, -88
	.cfi_offset w28, -96
	adrp	x8, __stack_chk_guard
	ldr	x8, [x8, :lo12:__stack_chk_guard]
	str	x8, [sp, #40]
.Ltmp103:
	.loc	130 246 6 prologue_end  // kernel/block/mas_blk_mq_tag.c:246:6
	cbz	x2, .LBB1_49
.Ltmp104:
// %bb.1:
	//DEBUG_VALUE: ufs_tagset_bt_get:hctx <- $x2
	//DEBUG_VALUE: ufs_tagset_bt_get:bt <- $x1
	//DEBUG_VALUE: ufs_tagset_bt_get:data <- $x0
	.loc	130 127 16              // kernel/block/mas_blk_mq_tag.c:127:16
	ldr	x8, [x0, #8]
	mov	w24, #4096
	mov	x21, x2
.Ltmp105:
	//DEBUG_VALUE: ufs_tagset_bt_get:hctx <- $x21
	.loc	130 0 16 is_stmt 0      // kernel/block/mas_blk_mq_tag.c:0:16
	mov	x20, x1
.Ltmp106:
	//DEBUG_VALUE: ufs_tagset_bt_get:bt <- $x20
	mov	x19, x0
.Ltmp107:
	//DEBUG_VALUE: ufs_tagset_bt_get:data <- $x19
	//DEBUG_VALUE: ufs_sbitmap_queue_get:data <- $x19
	//DEBUG_VALUE: ufs_sbitmap_queue_get:bt <- $x20
	//DEBUG_VALUE: ufs_sbitmap_is_fg:data <- $x19
	movk	w24, #64, lsl #16
.Ltmp108:
	.loc	130 143 6 is_stmt 1     // kernel/block/mas_blk_mq_tag.c:143:6
	tbnz	w8, #23, .LBB1_6
.Ltmp109:
// %bb.2:
	//DEBUG_VALUE: ufs_sbitmap_queue_get:bt <- $x20
	//DEBUG_VALUE: ufs_sbitmap_queue_get:data <- $x19
	//DEBUG_VALUE: ufs_tagset_bt_get:data <- $x19
	//DEBUG_VALUE: ufs_tagset_bt_get:bt <- $x20
	//DEBUG_VALUE: ufs_tagset_bt_get:hctx <- $x21
	.loc	130 0 0 is_stmt 0       // kernel/block/mas_blk_mq_tag.c:0:0
	and	x8, x8, x24
	.loc	130 143 6               // kernel/block/mas_blk_mq_tag.c:143:6
	cbz	x8, .LBB1_6
.Ltmp110:
// %bb.3:
	//DEBUG_VALUE: ufs_sbitmap_queue_get:bt <- $x20
	//DEBUG_VALUE: ufs_sbitmap_queue_get:data <- $x19
	//DEBUG_VALUE: ufs_tagset_bt_get:data <- $x19
	//DEBUG_VALUE: ufs_tagset_bt_get:bt <- $x20
	//DEBUG_VALUE: ufs_tagset_bt_get:hctx <- $x21
	mov	x0, x19
	bl	ufs_mq_vip_tag_wait_cnt
	cbz	w0, .LBB1_6
.Ltmp111:
// %bb.4:
	//DEBUG_VALUE: ufs_sbitmap_queue_get:bt <- $x20
	//DEBUG_VALUE: ufs_sbitmap_queue_get:data <- $x19
	//DEBUG_VALUE: ufs_tagset_bt_get:data <- $x19
	//DEBUG_VALUE: ufs_tagset_bt_get:bt <- $x20
	//DEBUG_VALUE: ufs_tagset_bt_get:hctx <- $x21
	//DEBUG_VALUE: ufs_sbitmap_fg_starved:data <- $x19
	.loc	130 133 13 is_stmt 1    // kernel/block/mas_blk_mq_tag.c:133:13
	ldr	x8, [x19, #24]
.Ltmp112:
	.loc	130 133 6 is_stmt 0     // kernel/block/mas_blk_mq_tag.c:133:6
	cbz	x8, .LBB1_7
.Ltmp113:
// %bb.5:
	//DEBUG_VALUE: ufs_sbitmap_fg_starved:data <- $x19
	//DEBUG_VALUE: ufs_sbitmap_queue_get:bt <- $x20
	//DEBUG_VALUE: ufs_sbitmap_queue_get:data <- $x19
	//DEBUG_VALUE: ufs_tagset_bt_get:data <- $x19
	//DEBUG_VALUE: ufs_tagset_bt_get:bt <- $x20
	//DEBUG_VALUE: ufs_tagset_bt_get:hctx <- $x21
	.loc	130 136 21 is_stmt 1    // kernel/block/mas_blk_mq_tag.c:136:21
	bl	ktime_get
.Ltmp114:
	//DEBUG_VALUE: ktime_after:cmp1 <- $x0
	//DEBUG_VALUE: ktime_compare:cmp1 <- $x0
	.loc	130 137 22              // kernel/block/mas_blk_mq_tag.c:137:22
	ldr	x8, [x19, #24]
	mov	w9, #25856
	movk	w9, #7629, lsl #16
.Ltmp115:
	//DEBUG_VALUE: ktime_add_ms:msec <- 500
	//DEBUG_VALUE: ktime_add_ms:kt <- $x8
	.loc	32 200 9                // kernel/include/linux/ktime.h:200:9
	add	x8, x8, x9
.Ltmp116:
	//DEBUG_VALUE: ktime_compare:cmp2 <- $x8
	//DEBUG_VALUE: ktime_after:cmp2 <- $x8
	.loc	130 143 6               // kernel/block/mas_blk_mq_tag.c:143:6
	cmp	x0, x8
	b.le	.LBB1_7
.Ltmp117:
.LBB1_6:
	//DEBUG_VALUE: ufs_sbitmap_queue_get:bt <- $x20
	//DEBUG_VALUE: ufs_sbitmap_queue_get:data <- $x19
	//DEBUG_VALUE: ufs_tagset_bt_get:data <- $x19
	//DEBUG_VALUE: ufs_tagset_bt_get:bt <- $x20
	//DEBUG_VALUE: ufs_tagset_bt_get:hctx <- $x21
	.loc	130 155 9               // kernel/block/mas_blk_mq_tag.c:155:9
	mov	x0, x20
	bl	__sbitmap_queue_get
	mov	w23, w0
.Ltmp118:
	//DEBUG_VALUE: ufs_tagset_bt_get:tag <- $w23
	.loc	130 250 6               // kernel/block/mas_blk_mq_tag.c:250:6
	cmn	w0, #1                  // =1
	b.ne	.LBB1_50
.Ltmp119:
.LBB1_7:
	//DEBUG_VALUE: ufs_tagset_bt_get:data <- $x19
	//DEBUG_VALUE: ufs_tagset_bt_get:bt <- $x20
	//DEBUG_VALUE: ufs_tagset_bt_get:hctx <- $x21
	//DEBUG_VALUE: ufs_tagset_bt_get_slowpath:data <- $x19
	//DEBUG_VALUE: ufs_tagset_bt_get_slowpath:bt <- $x20
	//DEBUG_VALUE: ufs_tagset_bt_get_slowpath:hctx <- $x21
	//DEBUG_VALUE: ufs_tagset_bt_get_slowpath:bs <- 0
	.loc	130 186 2               // kernel/block/mas_blk_mq_tag.c:186:2
	adrp	x8, autoremove_wake_function
	add	x8, x8, :lo12:autoremove_wake_function
	mov	x9, sp
.Ltmp120:
	.file	131 "/mnt/disk/jenkins/ci/workspace/chipset_pipeline_release/opensource/component_code/vendor/huawei/extra/build/build_script/kirin_kernel_release/kernel/arch/arm64/include/asm/current.h"
	.loc	131 19 2                // kernel/arch/arm64/include/asm/current.h:19:2
	//APP
	mrs x25, sp_el0
	//NO_APP
.Ltmp121:
	//DEBUG_VALUE: test_ti_thread_flag:ti <- $x25
	//DEBUG_VALUE: get_current:sp_el0 <- $x25
	//DEBUG_VALUE: get_current:sp_el0 <- $x25
	//DEBUG_VALUE: get_current:sp_el0 <- $x25
	//DEBUG_VALUE: test_bit:addr <- $x25
	//DEBUG_VALUE: get_current:sp_el0 <- $x25
	.loc	130 186 2               // kernel/block/mas_blk_mq_tag.c:186:2
	stp	x25, x8, [sp, #8]
	add	x8, x9, #24             // =24
	str	wzr, [sp]
	stp	x8, x8, [sp, #24]
.Ltmp122:
	.loc	130 189 12              // kernel/block/mas_blk_mq_tag.c:189:12
	ldr	x8, [x19, #8]
.Ltmp123:
	.loc	130 189 6 is_stmt 0     // kernel/block/mas_blk_mq_tag.c:189:6
	tbz	w8, #23, .LBB1_9
.Ltmp124:
// %bb.8:
	//DEBUG_VALUE: ufs_tagset_bt_get_slowpath:hctx <- $x21
	//DEBUG_VALUE: ufs_tagset_bt_get_slowpath:bt <- $x20
	//DEBUG_VALUE: ufs_tagset_bt_get_slowpath:data <- $x19
	//DEBUG_VALUE: ufs_tagset_bt_get:data <- $x19
	//DEBUG_VALUE: ufs_tagset_bt_get:bt <- $x20
	//DEBUG_VALUE: ufs_tagset_bt_get:hctx <- $x21
	.loc	130 190 3 is_stmt 1     // kernel/block/mas_blk_mq_tag.c:190:3
	mov	x0, x19
	bl	ufs_mq_inc_vip_wait_cnt
.Ltmp125:
	.loc	130 127 16              // kernel/block/mas_blk_mq_tag.c:127:16
	ldr	x8, [x19, #8]
.Ltmp126:
.LBB1_9:
	//DEBUG_VALUE: ufs_tagset_bt_get_slowpath:hctx <- $x21
	//DEBUG_VALUE: ufs_tagset_bt_get_slowpath:bt <- $x20
	//DEBUG_VALUE: ufs_tagset_bt_get_slowpath:data <- $x19
	//DEBUG_VALUE: ufs_tagset_bt_get:data <- $x19
	//DEBUG_VALUE: ufs_tagset_bt_get:bt <- $x20
	//DEBUG_VALUE: ufs_tagset_bt_get:hctx <- $x21
	//DEBUG_VALUE: ufs_sbitmap_is_fg:data <- $x19
	.loc	130 192 6               // kernel/block/mas_blk_mq_tag.c:192:6
	tbnz	w8, #23, .LBB1_12
.Ltmp127:
// %bb.10:
	//DEBUG_VALUE: ufs_tagset_bt_get_slowpath:hctx <- $x21
	//DEBUG_VALUE: ufs_tagset_bt_get_slowpath:bt <- $x20
	//DEBUG_VALUE: ufs_tagset_bt_get_slowpath:data <- $x19
	//DEBUG_VALUE: ufs_tagset_bt_get:data <- $x19
	//DEBUG_VALUE: ufs_tagset_bt_get:bt <- $x20
	//DEBUG_VALUE: ufs_tagset_bt_get:hctx <- $x21
	.loc	130 0 0 is_stmt 0       // kernel/block/mas_blk_mq_tag.c:0:0
	and	x8, x8, x24
	.loc	130 192 6               // kernel/block/mas_blk_mq_tag.c:192:6
	cbz	x8, .LBB1_12
.Ltmp128:
// %bb.11:
	//DEBUG_VALUE: ufs_tagset_bt_get_slowpath:hctx <- $x21
	//DEBUG_VALUE: ufs_tagset_bt_get_slowpath:bt <- $x20
	//DEBUG_VALUE: ufs_tagset_bt_get_slowpath:data <- $x19
	//DEBUG_VALUE: ufs_tagset_bt_get:data <- $x19
	//DEBUG_VALUE: ufs_tagset_bt_get:bt <- $x20
	//DEBUG_VALUE: ufs_tagset_bt_get:hctx <- $x21
	.loc	130 193 26 is_stmt 1    // kernel/block/mas_blk_mq_tag.c:193:26
	bl	ktime_get
	.loc	130 193 24 is_stmt 0    // kernel/block/mas_blk_mq_tag.c:193:24
	str	x0, [x19, #24]
.Ltmp129:
.LBB1_12:
	//DEBUG_VALUE: ufs_tagset_bt_get_slowpath:hctx <- $x21
	//DEBUG_VALUE: ufs_tagset_bt_get_slowpath:bt <- $x20
	//DEBUG_VALUE: ufs_tagset_bt_get_slowpath:data <- $x19
	//DEBUG_VALUE: ufs_tagset_bt_get:data <- $x19
	//DEBUG_VALUE: ufs_tagset_bt_get:bt <- $x20
	//DEBUG_VALUE: ufs_tagset_bt_get:hctx <- $x21
	.loc	130 195 12 is_stmt 1    // kernel/block/mas_blk_mq_tag.c:195:12
	ldr	x8, [x20, #40]
.Ltmp130:
	//DEBUG_VALUE: ufs_tagset_bt_get_slowpath:bs <- $x8
	.loc	130 0 12 is_stmt 0      // kernel/block/mas_blk_mq_tag.c:0:12
	mov	w26, #25856
	adrp	x27, cpu_number
	adrp	x28, __per_cpu_offset
	movk	w26, #7629, lsl #16
	add	x27, x27, :lo12:cpu_number
	add	x22, x8, #8             // =8
	add	x28, x28, :lo12:__per_cpu_offset
	//APP
	//NO_APP
	b	.LBB1_14
.Ltmp131:
.LBB1_13:                               //   in Loop: Header=BB1_14 Depth=1
	//DEBUG_VALUE: ufs_tagset_bt_get_slowpath:wait <- [DW_OP_deref] $sp
	//DEBUG_VALUE: ufs_tagset_bt_get_slowpath:bt <- $x20
	//DEBUG_VALUE: ufs_tagset_bt_get_slowpath:data <- $x19
	//DEBUG_VALUE: ufs_tagset_bt_get:data <- $x19
	//DEBUG_VALUE: ufs_tagset_bt_get_slowpath:bt <- $x20
	//DEBUG_VALUE: ufs_tagset_bt_get_slowpath:hctx <- $x21
	//DEBUG_VALUE: ufs_tagset_bt_get_slowpath:wait <- [DW_OP_deref] $sp
	//DEBUG_LABEL: finish_wait
	.loc	130 229 3 is_stmt 1     // kernel/block/mas_blk_mq_tag.c:229:3
	mov	x1, sp
	mov	x0, x22
	bl	finish_wait
.Ltmp132:
.LBB1_14:                               // =>This Inner Loop Header: Depth=1
	//DEBUG_VALUE: ufs_tagset_bt_get_slowpath:bs <- $x8
	//DEBUG_VALUE: ufs_tagset_bt_get_slowpath:hctx <- $x21
	//DEBUG_VALUE: ufs_tagset_bt_get_slowpath:bt <- $x20
	//DEBUG_VALUE: ufs_tagset_bt_get_slowpath:data <- $x19
	//DEBUG_VALUE: ufs_tagset_bt_get:data <- $x19
	//DEBUG_VALUE: ufs_tagset_bt_get:bt <- $x20
	//DEBUG_VALUE: ufs_tagset_bt_get:hctx <- $x21
	//DEBUG_VALUE: ufs_tagset_bt_get_slowpath:bt <- $x20
	//DEBUG_VALUE: ufs_tagset_bt_get_slowpath:hctx <- $x21
	//DEBUG_VALUE: ufs_sbitmap_queue_get:bt <- $x20
	//DEBUG_VALUE: ufs_tagset_bt_get_slowpath:wait <- [DW_OP_deref] $sp
	.loc	130 197 3               // kernel/block/mas_blk_mq_tag.c:197:3
	mov	x1, sp
	orr	w2, wzr, #0x2
	mov	x0, x22
	bl	prepare_to_wait
.Ltmp133:
	//DEBUG_VALUE: ufs_sbitmap_is_fg:data <- $x19
	//DEBUG_VALUE: ufs_sbitmap_queue_get:data <- $x19
	//DEBUG_VALUE: ufs_try_get_tag:data <- $x19
	//DEBUG_VALUE: ufs_try_get_tag:bt <- $x20
	//DEBUG_VALUE: ufs_try_get_tag:hctx <- $x21
	//DEBUG_VALUE: ufs_sbitmap_queue_get:bt <- $x20
	.loc	130 127 16              // kernel/block/mas_blk_mq_tag.c:127:16
	ldr	x8, [x19, #8]
.Ltmp134:
	.loc	130 143 6               // kernel/block/mas_blk_mq_tag.c:143:6
	tbnz	w8, #23, .LBB1_19
.Ltmp135:
// %bb.15:                              //   in Loop: Header=BB1_14 Depth=1
	//DEBUG_VALUE: ufs_sbitmap_queue_get:bt <- $x20
	//DEBUG_VALUE: ufs_try_get_tag:hctx <- $x21
	//DEBUG_VALUE: ufs_try_get_tag:bt <- $x20
	//DEBUG_VALUE: ufs_try_get_tag:data <- $x19
	//DEBUG_VALUE: ufs_sbitmap_queue_get:data <- $x19
	//DEBUG_VALUE: ufs_tagset_bt_get_slowpath:wait <- [DW_OP_deref] $sp
	//DEBUG_VALUE: ufs_tagset_bt_get_slowpath:hctx <- $x21
	//DEBUG_VALUE: ufs_tagset_bt_get_slowpath:bt <- $x20
	//DEBUG_VALUE: ufs_tagset_bt_get_slowpath:data <- $x19
	//DEBUG_VALUE: ufs_tagset_bt_get:data <- $x19
	//DEBUG_VALUE: ufs_tagset_bt_get:bt <- $x20
	//DEBUG_VALUE: ufs_tagset_bt_get:hctx <- $x21
	.loc	130 0 0 is_stmt 0       // kernel/block/mas_blk_mq_tag.c:0:0
	and	x8, x8, x24
	.loc	130 143 6               // kernel/block/mas_blk_mq_tag.c:143:6
	cbz	x8, .LBB1_19
.Ltmp136:
// %bb.16:                              //   in Loop: Header=BB1_14 Depth=1
	//DEBUG_VALUE: ufs_sbitmap_queue_get:bt <- $x20
	//DEBUG_VALUE: ufs_try_get_tag:hctx <- $x21
	//DEBUG_VALUE: ufs_try_get_tag:bt <- $x20
	//DEBUG_VALUE: ufs_try_get_tag:data <- $x19
	//DEBUG_VALUE: ufs_sbitmap_queue_get:data <- $x19
	//DEBUG_VALUE: ufs_tagset_bt_get_slowpath:wait <- [DW_OP_deref] $sp
	//DEBUG_VALUE: ufs_tagset_bt_get_slowpath:hctx <- $x21
	//DEBUG_VALUE: ufs_tagset_bt_get_slowpath:bt <- $x20
	//DEBUG_VALUE: ufs_tagset_bt_get_slowpath:data <- $x19
	//DEBUG_VALUE: ufs_tagset_bt_get:data <- $x19
	//DEBUG_VALUE: ufs_tagset_bt_get:bt <- $x20
	//DEBUG_VALUE: ufs_tagset_bt_get:hctx <- $x21
	mov	x0, x19
	bl	ufs_mq_vip_tag_wait_cnt
	cbz	w0, .LBB1_19
.Ltmp137:
// %bb.17:                              //   in Loop: Header=BB1_14 Depth=1
	//DEBUG_VALUE: ufs_sbitmap_queue_get:bt <- $x20
	//DEBUG_VALUE: ufs_try_get_tag:hctx <- $x21
	//DEBUG_VALUE: ufs_try_get_tag:bt <- $x20
	//DEBUG_VALUE: ufs_try_get_tag:data <- $x19
	//DEBUG_VALUE: ufs_sbitmap_queue_get:data <- $x19
	//DEBUG_VALUE: ufs_tagset_bt_get_slowpath:wait <- [DW_OP_deref] $sp
	//DEBUG_VALUE: ufs_tagset_bt_get_slowpath:hctx <- $x21
	//DEBUG_VALUE: ufs_tagset_bt_get_slowpath:bt <- $x20
	//DEBUG_VALUE: ufs_tagset_bt_get_slowpath:data <- $x19
	//DEBUG_VALUE: ufs_tagset_bt_get:data <- $x19
	//DEBUG_VALUE: ufs_tagset_bt_get:bt <- $x20
	//DEBUG_VALUE: ufs_tagset_bt_get:hctx <- $x21
	//DEBUG_VALUE: ufs_sbitmap_fg_starved:data <- $x19
	.loc	130 133 13 is_stmt 1    // kernel/block/mas_blk_mq_tag.c:133:13
	ldr	x8, [x19, #24]
.Ltmp138:
	.loc	130 133 6 is_stmt 0     // kernel/block/mas_blk_mq_tag.c:133:6
	cbz	x8, .LBB1_20
.Ltmp139:
// %bb.18:                              //   in Loop: Header=BB1_14 Depth=1
	//DEBUG_VALUE: ufs_sbitmap_fg_starved:data <- $x19
	//DEBUG_VALUE: ufs_sbitmap_queue_get:bt <- $x20
	//DEBUG_VALUE: ufs_try_get_tag:hctx <- $x21
	//DEBUG_VALUE: ufs_try_get_tag:bt <- $x20
	//DEBUG_VALUE: ufs_try_get_tag:data <- $x19
	//DEBUG_VALUE: ufs_sbitmap_queue_get:data <- $x19
	//DEBUG_VALUE: ufs_tagset_bt_get_slowpath:wait <- [DW_OP_deref] $sp
	//DEBUG_VALUE: ufs_tagset_bt_get_slowpath:hctx <- $x21
	//DEBUG_VALUE: ufs_tagset_bt_get_slowpath:bt <- $x20
	//DEBUG_VALUE: ufs_tagset_bt_get_slowpath:data <- $x19
	//DEBUG_VALUE: ufs_tagset_bt_get:data <- $x19
	//DEBUG_VALUE: ufs_tagset_bt_get:bt <- $x20
	//DEBUG_VALUE: ufs_tagset_bt_get:hctx <- $x21
	.loc	130 136 21 is_stmt 1    // kernel/block/mas_blk_mq_tag.c:136:21
	bl	ktime_get
.Ltmp140:
	//DEBUG_VALUE: ktime_after:cmp1 <- $x0
	//DEBUG_VALUE: ktime_compare:cmp1 <- $x0
	.loc	130 137 22              // kernel/block/mas_blk_mq_tag.c:137:22
	ldr	x8, [x19, #24]
.Ltmp141:
	//DEBUG_VALUE: ktime_add_ms:msec <- 500
	//DEBUG_VALUE: ktime_add_ms:kt <- $x8
	.loc	32 200 9                // kernel/include/linux/ktime.h:200:9
	add	x8, x8, x26
.Ltmp142:
	//DEBUG_VALUE: ktime_compare:cmp2 <- $x8
	//DEBUG_VALUE: ktime_after:cmp2 <- $x8
	.loc	130 143 6               // kernel/block/mas_blk_mq_tag.c:143:6
	cmp	x0, x8
	b.le	.LBB1_20
.Ltmp143:
.LBB1_19:                               //   in Loop: Header=BB1_14 Depth=1
	//DEBUG_VALUE: ufs_sbitmap_queue_get:bt <- $x20
	//DEBUG_VALUE: ufs_try_get_tag:hctx <- $x21
	//DEBUG_VALUE: ufs_try_get_tag:bt <- $x20
	//DEBUG_VALUE: ufs_try_get_tag:data <- $x19
	//DEBUG_VALUE: ufs_sbitmap_queue_get:data <- $x19
	//DEBUG_VALUE: ufs_tagset_bt_get_slowpath:wait <- [DW_OP_deref] $sp
	//DEBUG_VALUE: ufs_tagset_bt_get_slowpath:hctx <- $x21
	//DEBUG_VALUE: ufs_tagset_bt_get_slowpath:bt <- $x20
	//DEBUG_VALUE: ufs_tagset_bt_get_slowpath:data <- $x19
	//DEBUG_VALUE: ufs_tagset_bt_get:data <- $x19
	//DEBUG_VALUE: ufs_tagset_bt_get:bt <- $x20
	//DEBUG_VALUE: ufs_tagset_bt_get:hctx <- $x21
	.loc	130 155 9               // kernel/block/mas_blk_mq_tag.c:155:9
	mov	x0, x20
	bl	__sbitmap_queue_get
.Ltmp144:
	.loc	130 164 6               // kernel/block/mas_blk_mq_tag.c:164:6
	cmn	w0, #1                  // =1
	b.ne	.LBB1_52
.Ltmp145:
.LBB1_20:                               //   in Loop: Header=BB1_14 Depth=1
	//DEBUG_VALUE: ufs_try_get_tag:hctx <- $x21
	//DEBUG_VALUE: ufs_try_get_tag:bt <- $x20
	//DEBUG_VALUE: ufs_try_get_tag:data <- $x19
	//DEBUG_VALUE: ufs_tagset_bt_get_slowpath:wait <- [DW_OP_deref] $sp
	//DEBUG_VALUE: ufs_tagset_bt_get_slowpath:hctx <- $x21
	//DEBUG_VALUE: ufs_tagset_bt_get_slowpath:bt <- $x20
	//DEBUG_VALUE: ufs_tagset_bt_get_slowpath:data <- $x19
	//DEBUG_VALUE: ufs_tagset_bt_get:data <- $x19
	//DEBUG_VALUE: ufs_tagset_bt_get:bt <- $x20
	//DEBUG_VALUE: ufs_tagset_bt_get:hctx <- $x21
	.loc	130 172 2               // kernel/block/mas_blk_mq_tag.c:172:2
	mov	x0, x21
	mov	w1, wzr
	bl	blk_mq_run_hw_queue
.Ltmp146:
	//DEBUG_VALUE: ufs_sbitmap_is_fg:data <- $x19
	//DEBUG_VALUE: ufs_sbitmap_queue_get:data <- $x19
	.loc	130 127 16              // kernel/block/mas_blk_mq_tag.c:127:16
	ldr	x8, [x19, #8]
.Ltmp147:
	.loc	130 143 6               // kernel/block/mas_blk_mq_tag.c:143:6
	tbnz	w8, #23, .LBB1_25
.Ltmp148:
// %bb.21:                              //   in Loop: Header=BB1_14 Depth=1
	//DEBUG_VALUE: ufs_sbitmap_queue_get:data <- $x19
	//DEBUG_VALUE: ufs_try_get_tag:hctx <- $x21
	//DEBUG_VALUE: ufs_try_get_tag:bt <- $x20
	//DEBUG_VALUE: ufs_try_get_tag:data <- $x19
	//DEBUG_VALUE: ufs_tagset_bt_get_slowpath:wait <- [DW_OP_deref] $sp
	//DEBUG_VALUE: ufs_tagset_bt_get_slowpath:hctx <- $x21
	//DEBUG_VALUE: ufs_tagset_bt_get_slowpath:bt <- $x20
	//DEBUG_VALUE: ufs_tagset_bt_get_slowpath:data <- $x19
	//DEBUG_VALUE: ufs_tagset_bt_get:data <- $x19
	//DEBUG_VALUE: ufs_tagset_bt_get:bt <- $x20
	//DEBUG_VALUE: ufs_tagset_bt_get:hctx <- $x21
	.loc	130 0 0 is_stmt 0       // kernel/block/mas_blk_mq_tag.c:0:0
	and	x8, x8, x24
	.loc	130 143 6               // kernel/block/mas_blk_mq_tag.c:143:6
	cbz	x8, .LBB1_25
.Ltmp149:
// %bb.22:                              //   in Loop: Header=BB1_14 Depth=1
	//DEBUG_VALUE: ufs_sbitmap_queue_get:data <- $x19
	//DEBUG_VALUE: ufs_try_get_tag:hctx <- $x21
	//DEBUG_VALUE: ufs_try_get_tag:bt <- $x20
	//DEBUG_VALUE: ufs_try_get_tag:data <- $x19
	//DEBUG_VALUE: ufs_tagset_bt_get_slowpath:wait <- [DW_OP_deref] $sp
	//DEBUG_VALUE: ufs_tagset_bt_get_slowpath:hctx <- $x21
	//DEBUG_VALUE: ufs_tagset_bt_get_slowpath:bt <- $x20
	//DEBUG_VALUE: ufs_tagset_bt_get_slowpath:data <- $x19
	//DEBUG_VALUE: ufs_tagset_bt_get:data <- $x19
	//DEBUG_VALUE: ufs_tagset_bt_get:bt <- $x20
	//DEBUG_VALUE: ufs_tagset_bt_get:hctx <- $x21
	mov	x0, x19
	bl	ufs_mq_vip_tag_wait_cnt
	cbz	w0, .LBB1_25
.Ltmp150:
// %bb.23:                              //   in Loop: Header=BB1_14 Depth=1
	//DEBUG_VALUE: ufs_sbitmap_queue_get:data <- $x19
	//DEBUG_VALUE: ufs_try_get_tag:hctx <- $x21
	//DEBUG_VALUE: ufs_try_get_tag:bt <- $x20
	//DEBUG_VALUE: ufs_try_get_tag:data <- $x19
	//DEBUG_VALUE: ufs_tagset_bt_get_slowpath:wait <- [DW_OP_deref] $sp
	//DEBUG_VALUE: ufs_tagset_bt_get_slowpath:hctx <- $x21
	//DEBUG_VALUE: ufs_tagset_bt_get_slowpath:bt <- $x20
	//DEBUG_VALUE: ufs_tagset_bt_get_slowpath:data <- $x19
	//DEBUG_VALUE: ufs_tagset_bt_get:data <- $x19
	//DEBUG_VALUE: ufs_tagset_bt_get:bt <- $x20
	//DEBUG_VALUE: ufs_tagset_bt_get:hctx <- $x21
	//DEBUG_VALUE: ufs_sbitmap_fg_starved:data <- $x19
	.loc	130 133 13 is_stmt 1    // kernel/block/mas_blk_mq_tag.c:133:13
	ldr	x8, [x19, #24]
.Ltmp151:
	.loc	130 133 6 is_stmt 0     // kernel/block/mas_blk_mq_tag.c:133:6
	cbz	x8, .LBB1_26
.Ltmp152:
// %bb.24:                              //   in Loop: Header=BB1_14 Depth=1
	//DEBUG_VALUE: ufs_sbitmap_fg_starved:data <- $x19
	//DEBUG_VALUE: ufs_sbitmap_queue_get:data <- $x19
	//DEBUG_VALUE: ufs_try_get_tag:hctx <- $x21
	//DEBUG_VALUE: ufs_try_get_tag:bt <- $x20
	//DEBUG_VALUE: ufs_try_get_tag:data <- $x19
	//DEBUG_VALUE: ufs_tagset_bt_get_slowpath:wait <- [DW_OP_deref] $sp
	//DEBUG_VALUE: ufs_tagset_bt_get_slowpath:hctx <- $x21
	//DEBUG_VALUE: ufs_tagset_bt_get_slowpath:bt <- $x20
	//DEBUG_VALUE: ufs_tagset_bt_get_slowpath:data <- $x19
	//DEBUG_VALUE: ufs_tagset_bt_get:data <- $x19
	//DEBUG_VALUE: ufs_tagset_bt_get:bt <- $x20
	//DEBUG_VALUE: ufs_tagset_bt_get:hctx <- $x21
	.loc	130 136 21 is_stmt 1    // kernel/block/mas_blk_mq_tag.c:136:21
	bl	ktime_get
.Ltmp153:
	//DEBUG_VALUE: ktime_after:cmp1 <- $x0
	//DEBUG_VALUE: ktime_compare:cmp1 <- $x0
	.loc	130 137 22              // kernel/block/mas_blk_mq_tag.c:137:22
	ldr	x8, [x19, #24]
.Ltmp154:
	//DEBUG_VALUE: ktime_add_ms:msec <- 500
	//DEBUG_VALUE: ktime_add_ms:kt <- $x8
	.loc	32 200 9                // kernel/include/linux/ktime.h:200:9
	add	x8, x8, x26
.Ltmp155:
	//DEBUG_VALUE: ktime_compare:cmp2 <- $x8
	//DEBUG_VALUE: ktime_after:cmp2 <- $x8
	.loc	130 143 6               // kernel/block/mas_blk_mq_tag.c:143:6
	cmp	x0, x8
	b.le	.LBB1_26
.Ltmp156:
.LBB1_25:                               //   in Loop: Header=BB1_14 Depth=1
	//DEBUG_VALUE: ufs_sbitmap_queue_get:data <- $x19
	//DEBUG_VALUE: ufs_try_get_tag:hctx <- $x21
	//DEBUG_VALUE: ufs_try_get_tag:bt <- $x20
	//DEBUG_VALUE: ufs_try_get_tag:data <- $x19
	//DEBUG_VALUE: ufs_tagset_bt_get_slowpath:wait <- [DW_OP_deref] $sp
	//DEBUG_VALUE: ufs_tagset_bt_get_slowpath:hctx <- $x21
	//DEBUG_VALUE: ufs_tagset_bt_get_slowpath:bt <- $x20
	//DEBUG_VALUE: ufs_tagset_bt_get_slowpath:data <- $x19
	//DEBUG_VALUE: ufs_tagset_bt_get:data <- $x19
	//DEBUG_VALUE: ufs_tagset_bt_get:bt <- $x20
	//DEBUG_VALUE: ufs_tagset_bt_get:hctx <- $x21
	.loc	130 155 9               // kernel/block/mas_blk_mq_tag.c:155:9
	mov	x0, x20
	bl	__sbitmap_queue_get
.Ltmp157:
	.loc	130 200 7               // kernel/block/mas_blk_mq_tag.c:200:7
	cmn	w0, #1                  // =1
	b.ne	.LBB1_52
.Ltmp158:
.LBB1_26:                               //   in Loop: Header=BB1_14 Depth=1
	//DEBUG_VALUE: ufs_tagset_bt_get_slowpath:wait <- [DW_OP_deref] $sp
	//DEBUG_VALUE: ufs_tagset_bt_get_slowpath:hctx <- $x21
	//DEBUG_VALUE: ufs_tagset_bt_get_slowpath:bt <- $x20
	//DEBUG_VALUE: ufs_tagset_bt_get_slowpath:data <- $x19
	//DEBUG_VALUE: ufs_tagset_bt_get:data <- $x19
	//DEBUG_VALUE: ufs_tagset_bt_get:bt <- $x20
	//DEBUG_VALUE: ufs_tagset_bt_get:hctx <- $x21
	.loc	130 203 24              // kernel/block/mas_blk_mq_tag.c:203:24
	ldr	x8, [x19, #40]
.Ltmp159:
	//DEBUG_VALUE: blk_mq_put_ctx:ctx <- $x8
	.loc	90 119 11               // kernel/block/blk-mq.h:119:11
	ldr	x0, [x8, #144]
	.loc	90 119 18 is_stmt 0     // kernel/block/blk-mq.h:119:18
	ldr	x8, [x0, #1808]
.Ltmp160:
	.loc	90 119 32               // kernel/block/blk-mq.h:119:32
	cbz	x8, .LBB1_29
.Ltmp161:
// %bb.27:                              //   in Loop: Header=BB1_14 Depth=1
	//DEBUG_VALUE: ufs_tagset_bt_get_slowpath:wait <- [DW_OP_deref] $sp
	//DEBUG_VALUE: ufs_tagset_bt_get_slowpath:hctx <- $x21
	//DEBUG_VALUE: ufs_tagset_bt_get_slowpath:bt <- $x20
	//DEBUG_VALUE: ufs_tagset_bt_get_slowpath:data <- $x19
	//DEBUG_VALUE: ufs_tagset_bt_get:data <- $x19
	//DEBUG_VALUE: ufs_tagset_bt_get:bt <- $x20
	//DEBUG_VALUE: ufs_tagset_bt_get:hctx <- $x21
	.loc	90 119 62               // kernel/block/blk-mq.h:119:62
	ldr	x8, [x8, #88]
.Ltmp162:
	.loc	90 119 6                // kernel/block/blk-mq.h:119:6
	cbz	x8, .LBB1_29
.Ltmp163:
// %bb.28:                              //   in Loop: Header=BB1_14 Depth=1
	//DEBUG_VALUE: ufs_tagset_bt_get_slowpath:wait <- [DW_OP_deref] $sp
	//DEBUG_VALUE: ufs_tagset_bt_get_slowpath:hctx <- $x21
	//DEBUG_VALUE: ufs_tagset_bt_get_slowpath:bt <- $x20
	//DEBUG_VALUE: ufs_tagset_bt_get_slowpath:data <- $x19
	//DEBUG_VALUE: ufs_tagset_bt_get:data <- $x19
	//DEBUG_VALUE: ufs_tagset_bt_get:bt <- $x20
	//DEBUG_VALUE: ufs_tagset_bt_get:hctx <- $x21
	.loc	90 120 3 is_stmt 1      // kernel/block/blk-mq.h:120:3
	blr	x8
.Ltmp164:
	//DEBUG_VALUE: ufs_sbitmap_is_fg:data <- $x19
	.loc	130 127 16              // kernel/block/mas_blk_mq_tag.c:127:16
	ldr	x8, [x19, #8]
.Ltmp165:
	.loc	130 204 7               // kernel/block/mas_blk_mq_tag.c:204:7
	tbz	w8, #23, .LBB1_32
	b	.LBB1_36
.Ltmp166:
.LBB1_29:                               //   in Loop: Header=BB1_14 Depth=1
	//DEBUG_VALUE: ufs_tagset_bt_get_slowpath:wait <- [DW_OP_deref] $sp
	//DEBUG_VALUE: ufs_tagset_bt_get_slowpath:hctx <- $x21
	//DEBUG_VALUE: ufs_tagset_bt_get_slowpath:bt <- $x20
	//DEBUG_VALUE: ufs_tagset_bt_get_slowpath:data <- $x19
	//DEBUG_VALUE: ufs_tagset_bt_get:data <- $x19
	//DEBUG_VALUE: ufs_tagset_bt_get:bt <- $x20
	//DEBUG_VALUE: ufs_tagset_bt_get:hctx <- $x21
	.loc	90 123 3                // kernel/block/blk-mq.h:123:3
	//APP
	//NO_APP
.Ltmp167:
	.file	132 "/mnt/disk/jenkins/ci/workspace/chipset_pipeline_release/opensource/component_code/vendor/huawei/extra/build/build_script/kirin_kernel_release/kernel/include/asm-generic/preempt.h"
	.loc	132 69 10               // kernel/include/asm-generic/preempt.h:69:10
	ldr	w8, [x25, #24]
	subs	w8, w8, #1              // =1
	str	w8, [x25, #24]
	.loc	132 69 33 is_stmt 0     // kernel/include/asm-generic/preempt.h:69:33
	b.ne	.LBB1_31
.Ltmp168:
// %bb.30:                              //   in Loop: Header=BB1_14 Depth=1
	//DEBUG_VALUE: ufs_tagset_bt_get_slowpath:wait <- [DW_OP_deref] $sp
	//DEBUG_VALUE: ufs_tagset_bt_get_slowpath:hctx <- $x21
	//DEBUG_VALUE: ufs_tagset_bt_get_slowpath:bt <- $x20
	//DEBUG_VALUE: ufs_tagset_bt_get_slowpath:data <- $x19
	//DEBUG_VALUE: ufs_tagset_bt_get:data <- $x19
	//DEBUG_VALUE: ufs_tagset_bt_get:bt <- $x20
	//DEBUG_VALUE: ufs_tagset_bt_get:hctx <- $x21
	//DEBUG_VALUE: test_ti_thread_flag:flag <- 1
	//DEBUG_VALUE: test_bit:nr <- 1
	.file	133 "/mnt/disk/jenkins/ci/workspace/chipset_pipeline_release/opensource/component_code/vendor/huawei/extra/build/build_script/kirin_kernel_release/kernel/include/asm-generic/bitops/non-atomic.h"
	.loc	133 106 16 is_stmt 1    // kernel/include/asm-generic/bitops/non-atomic.h:106:16
	ldr	x8, [x25]
.Ltmp169:
	.loc	90 123 3                // kernel/block/blk-mq.h:123:3
	tbnz	w8, #1, .LBB1_35
.Ltmp170:
.LBB1_31:                               //   in Loop: Header=BB1_14 Depth=1
	//DEBUG_VALUE: ufs_tagset_bt_get_slowpath:wait <- [DW_OP_deref] $sp
	//DEBUG_VALUE: ufs_tagset_bt_get_slowpath:hctx <- $x21
	//DEBUG_VALUE: ufs_tagset_bt_get_slowpath:bt <- $x20
	//DEBUG_VALUE: ufs_tagset_bt_get_slowpath:data <- $x19
	//DEBUG_VALUE: ufs_tagset_bt_get:data <- $x19
	//DEBUG_VALUE: ufs_tagset_bt_get:bt <- $x20
	//DEBUG_VALUE: ufs_tagset_bt_get:hctx <- $x21
	//DEBUG_VALUE: ufs_sbitmap_is_fg:data <- $x19
	.loc	130 127 16              // kernel/block/mas_blk_mq_tag.c:127:16
	ldr	x8, [x19, #8]
.Ltmp171:
	.loc	130 204 7               // kernel/block/mas_blk_mq_tag.c:204:7
	tbnz	w8, #23, .LBB1_36
.Ltmp172:
.LBB1_32:                               //   in Loop: Header=BB1_14 Depth=1
	//DEBUG_VALUE: ufs_tagset_bt_get_slowpath:wait <- [DW_OP_deref] $sp
	//DEBUG_VALUE: ufs_tagset_bt_get_slowpath:hctx <- $x21
	//DEBUG_VALUE: ufs_tagset_bt_get_slowpath:bt <- $x20
	//DEBUG_VALUE: ufs_tagset_bt_get_slowpath:data <- $x19
	//DEBUG_VALUE: ufs_tagset_bt_get:data <- $x19
	//DEBUG_VALUE: ufs_tagset_bt_get:bt <- $x20
	//DEBUG_VALUE: ufs_tagset_bt_get:hctx <- $x21
	.loc	130 0 0 is_stmt 0       // kernel/block/mas_blk_mq_tag.c:0:0
	and	x8, x8, x24
	.loc	130 204 7               // kernel/block/mas_blk_mq_tag.c:204:7
	cbz	x8, .LBB1_36
.Ltmp173:
// %bb.33:                              //   in Loop: Header=BB1_14 Depth=1
	//DEBUG_VALUE: ufs_tagset_bt_get_slowpath:wait <- [DW_OP_deref] $sp
	//DEBUG_VALUE: ufs_tagset_bt_get_slowpath:hctx <- $x21
	//DEBUG_VALUE: ufs_tagset_bt_get_slowpath:bt <- $x20
	//DEBUG_VALUE: ufs_tagset_bt_get_slowpath:data <- $x19
	//DEBUG_VALUE: ufs_tagset_bt_get:data <- $x19
	//DEBUG_VALUE: ufs_tagset_bt_get:bt <- $x20
	//DEBUG_VALUE: ufs_tagset_bt_get:hctx <- $x21
	.loc	130 205 9 is_stmt 1     // kernel/block/mas_blk_mq_tag.c:205:9
	orr	w0, wzr, #0x1
	bl	io_schedule_timeout
.Ltmp174:
	.loc	130 205 8 is_stmt 0     // kernel/block/mas_blk_mq_tag.c:205:8
	cbnz	x0, .LBB1_37
.Ltmp175:
// %bb.34:                              //   in Loop: Header=BB1_14 Depth=1
	//DEBUG_VALUE: ufs_tagset_bt_get_slowpath:wait <- [DW_OP_deref] $sp
	//DEBUG_VALUE: ufs_tagset_bt_get_slowpath:hctx <- $x21
	//DEBUG_VALUE: ufs_tagset_bt_get_slowpath:bt <- $x20
	//DEBUG_VALUE: ufs_tagset_bt_get_slowpath:data <- $x19
	//DEBUG_VALUE: ufs_tagset_bt_get:data <- $x19
	//DEBUG_VALUE: ufs_tagset_bt_get:bt <- $x20
	//DEBUG_VALUE: ufs_tagset_bt_get:hctx <- $x21
	.loc	130 206 5 is_stmt 1     // kernel/block/mas_blk_mq_tag.c:206:5
	mov	x0, x19
	bl	reset_vip_wait_cnt
	b	.LBB1_37
.Ltmp176:
.LBB1_35:                               //   in Loop: Header=BB1_14 Depth=1
	//DEBUG_VALUE: ufs_tagset_bt_get_slowpath:wait <- [DW_OP_deref] $sp
	//DEBUG_VALUE: ufs_tagset_bt_get_slowpath:hctx <- $x21
	//DEBUG_VALUE: ufs_tagset_bt_get_slowpath:bt <- $x20
	//DEBUG_VALUE: ufs_tagset_bt_get_slowpath:data <- $x19
	//DEBUG_VALUE: ufs_tagset_bt_get:data <- $x19
	//DEBUG_VALUE: ufs_tagset_bt_get:bt <- $x20
	//DEBUG_VALUE: ufs_tagset_bt_get:hctx <- $x21
	.loc	90 123 3                // kernel/block/blk-mq.h:123:3
	bl	preempt_schedule
.Ltmp177:
	//DEBUG_VALUE: ufs_sbitmap_is_fg:data <- $x19
	.loc	130 127 16              // kernel/block/mas_blk_mq_tag.c:127:16
	ldr	x8, [x19, #8]
.Ltmp178:
	.loc	130 204 7               // kernel/block/mas_blk_mq_tag.c:204:7
	tbz	w8, #23, .LBB1_32
.Ltmp179:
.LBB1_36:                               //   in Loop: Header=BB1_14 Depth=1
	//DEBUG_VALUE: ufs_tagset_bt_get_slowpath:wait <- [DW_OP_deref] $sp
	//DEBUG_VALUE: ufs_tagset_bt_get_slowpath:hctx <- $x21
	//DEBUG_VALUE: ufs_tagset_bt_get_slowpath:bt <- $x20
	//DEBUG_VALUE: ufs_tagset_bt_get_slowpath:data <- $x19
	//DEBUG_VALUE: ufs_tagset_bt_get:data <- $x19
	//DEBUG_VALUE: ufs_tagset_bt_get:bt <- $x20
	//DEBUG_VALUE: ufs_tagset_bt_get:hctx <- $x21
	.loc	130 208 4               // kernel/block/mas_blk_mq_tag.c:208:4
	bl	io_schedule
.Ltmp180:
.LBB1_37:                               //   in Loop: Header=BB1_14 Depth=1
	//DEBUG_VALUE: ufs_tagset_bt_get_slowpath:wait <- [DW_OP_deref] $sp
	//DEBUG_VALUE: ufs_tagset_bt_get_slowpath:hctx <- $x21
	//DEBUG_VALUE: ufs_tagset_bt_get_slowpath:bt <- $x20
	//DEBUG_VALUE: ufs_tagset_bt_get_slowpath:data <- $x19
	//DEBUG_VALUE: ufs_tagset_bt_get:data <- $x19
	//DEBUG_VALUE: ufs_tagset_bt_get:bt <- $x20
	//DEBUG_VALUE: ufs_tagset_bt_get:hctx <- $x21
	.loc	130 211 36              // kernel/block/mas_blk_mq_tag.c:211:36
	ldr	x0, [x19]
.Ltmp181:
	//DEBUG_VALUE: blk_mq_get_ctx:q <- $x0
	//DEBUG_VALUE: __blk_mq_get_ctx:q <- $x0
	.loc	90 110 9                // kernel/block/blk-mq.h:110:9
	ldr	x8, [x0, #1808]
	.loc	90 110 23 is_stmt 0     // kernel/block/blk-mq.h:110:23
	cbz	x8, .LBB1_40
.Ltmp182:
// %bb.38:                              //   in Loop: Header=BB1_14 Depth=1
	//DEBUG_VALUE: blk_mq_get_ctx:q <- $x0
	//DEBUG_VALUE: ufs_tagset_bt_get_slowpath:wait <- [DW_OP_deref] $sp
	//DEBUG_VALUE: ufs_tagset_bt_get_slowpath:hctx <- $x21
	//DEBUG_VALUE: ufs_tagset_bt_get_slowpath:bt <- $x20
	//DEBUG_VALUE: ufs_tagset_bt_get_slowpath:data <- $x19
	//DEBUG_VALUE: ufs_tagset_bt_get:data <- $x19
	//DEBUG_VALUE: ufs_tagset_bt_get:bt <- $x20
	//DEBUG_VALUE: ufs_tagset_bt_get:hctx <- $x21
	.loc	90 110 44               // kernel/block/blk-mq.h:110:44
	ldr	x8, [x8, #80]
.Ltmp183:
	.loc	90 110 6                // kernel/block/blk-mq.h:110:6
	cbz	x8, .LBB1_40
.Ltmp184:
// %bb.39:                              //   in Loop: Header=BB1_14 Depth=1
	//DEBUG_VALUE: blk_mq_get_ctx:q <- $x0
	//DEBUG_VALUE: ufs_tagset_bt_get_slowpath:wait <- [DW_OP_deref] $sp
	//DEBUG_VALUE: ufs_tagset_bt_get_slowpath:hctx <- $x21
	//DEBUG_VALUE: ufs_tagset_bt_get_slowpath:bt <- $x20
	//DEBUG_VALUE: ufs_tagset_bt_get_slowpath:data <- $x19
	//DEBUG_VALUE: ufs_tagset_bt_get:data <- $x19
	//DEBUG_VALUE: ufs_tagset_bt_get:bt <- $x20
	//DEBUG_VALUE: ufs_tagset_bt_get:hctx <- $x21
	.loc	90 111 10 is_stmt 1     // kernel/block/blk-mq.h:111:10
	blr	x8
.Ltmp185:
	.loc	90 0 10 is_stmt 0       // kernel/block/blk-mq.h:0:10
	b	.LBB1_41
.Ltmp186:
.LBB1_40:                               //   in Loop: Header=BB1_14 Depth=1
	//DEBUG_VALUE: blk_mq_get_ctx:q <- $x0
	//DEBUG_VALUE: ufs_tagset_bt_get_slowpath:wait <- [DW_OP_deref] $sp
	//DEBUG_VALUE: ufs_tagset_bt_get_slowpath:hctx <- $x21
	//DEBUG_VALUE: ufs_tagset_bt_get_slowpath:bt <- $x20
	//DEBUG_VALUE: ufs_tagset_bt_get_slowpath:data <- $x19
	//DEBUG_VALUE: ufs_tagset_bt_get:data <- $x19
	//DEBUG_VALUE: ufs_tagset_bt_get:bt <- $x20
	//DEBUG_VALUE: ufs_tagset_bt_get:hctx <- $x21
	//DEBUG_VALUE: __preempt_count_add:val <- 1
	.loc	132 54 23 is_stmt 1     // kernel/include/asm-generic/preempt.h:54:23
	ldr	w8, [x25, #24]
	add	w8, w8, #1              // =1
	str	w8, [x25, #24]
.Ltmp187:
	.loc	90 113 29               // kernel/block/blk-mq.h:113:29
	//APP
	//NO_APP
.Ltmp188:
	//DEBUG_VALUE: __ptr <- $x27
	.file	134 "/mnt/disk/jenkins/ci/workspace/chipset_pipeline_release/opensource/component_code/vendor/huawei/extra/build/build_script/kirin_kernel_release/kernel/arch/arm64/include/asm/percpu.h"
	.loc	134 38 2                // kernel/arch/arm64/include/asm/percpu.h:38:2
	//APP
	.if 1 == 1
661:
	mrs x8, tpidr_el1
662:
.pushsection .altinstructions,"a"
 .word 661b - .
 .if 0 == 0
 .word 663f - .
 .else
 .word 0- .
 .endif
 .hword 11
 .byte 662b-661b
 .byte 664f-663f
.popsection
 .if 0 == 0
.pushsection .altinstr_replacement, "a"
663:
	mrs x8, tpidr_el2
664:
	.popsection
	.org	. - (664b-663b) + (662b-661b)
	.org	. - (662b-661b) + (664b-663b)
.else
	663:
	664:
	.endif
.endif

	//NO_APP
.Ltmp189:
	//DEBUG_VALUE: __my_cpu_offset:off <- $x8
	.loc	90 113 29               // kernel/block/blk-mq.h:113:29
	ldr	w8, [x8, x27]
.Ltmp190:
	//DEBUG_VALUE: __blk_mq_get_ctx:cpu <- undef
	.loc	90 98 9                 // kernel/block/blk-mq.h:98:9
	ldr	x9, [x0, #328]
	//APP
	//NO_APP
.Ltmp191:
	//DEBUG_VALUE: __ptr <- $x9
	ldr	x8, [x28, x8, lsl #3]
	add	x0, x8, x9
.Ltmp192:
.LBB1_41:                               //   in Loop: Header=BB1_14 Depth=1
	//DEBUG_VALUE: ufs_tagset_bt_get_slowpath:wait <- [DW_OP_deref] $sp
	//DEBUG_VALUE: ufs_tagset_bt_get_slowpath:hctx <- $x21
	//DEBUG_VALUE: ufs_tagset_bt_get_slowpath:bt <- $x20
	//DEBUG_VALUE: ufs_tagset_bt_get_slowpath:data <- $x19
	//DEBUG_VALUE: ufs_tagset_bt_get:data <- $x19
	//DEBUG_VALUE: ufs_tagset_bt_get:bt <- $x20
	//DEBUG_VALUE: ufs_tagset_bt_get:hctx <- $x21
	.loc	130 212 39              // kernel/block/mas_blk_mq_tag.c:212:39
	ldr	x8, [x19]
	.loc	130 211 13              // kernel/block/mas_blk_mq_tag.c:211:13
	str	x0, [x19, #40]
	.loc	130 212 53              // kernel/block/mas_blk_mq_tag.c:212:53
	ldrsw	x9, [x0, #64]
.Ltmp193:
	//DEBUG_VALUE: blk_mq_map_queue:cpu <- undef
	//DEBUG_VALUE: blk_mq_map_queue:q <- $x8
	.loc	90 78 28                // kernel/block/blk-mq.h:78:28
	ldr	x10, [x8, #320]
	.loc	90 78 12 is_stmt 0      // kernel/block/blk-mq.h:78:12
	ldr	x8, [x8, #344]
.Ltmp194:
	.loc	90 78 25                // kernel/block/blk-mq.h:78:25
	ldr	w9, [x10, x9, lsl #2]
	.loc	90 78 9                 // kernel/block/blk-mq.h:78:9
	ldr	x8, [x8, x9, lsl #3]
.Ltmp195:
	.loc	130 212 14 is_stmt 1    // kernel/block/mas_blk_mq_tag.c:212:14
	str	x8, [x19, #48]
	.loc	130 213 7               // kernel/block/mas_blk_mq_tag.c:213:7
	cbz	x8, .LBB1_55
.Ltmp196:
// %bb.42:                              //   in Loop: Header=BB1_14 Depth=1
	//DEBUG_VALUE: ufs_tagset_bt_get_slowpath:wait <- [DW_OP_deref] $sp
	//DEBUG_VALUE: ufs_tagset_bt_get_slowpath:hctx <- $x21
	//DEBUG_VALUE: ufs_tagset_bt_get_slowpath:bt <- $x20
	//DEBUG_VALUE: ufs_tagset_bt_get_slowpath:data <- $x19
	//DEBUG_VALUE: ufs_tagset_bt_get:data <- $x19
	//DEBUG_VALUE: ufs_tagset_bt_get:bt <- $x20
	//DEBUG_VALUE: ufs_tagset_bt_get:hctx <- $x21
	.loc	130 216 7               // kernel/block/mas_blk_mq_tag.c:216:7
	cmp	x21, x8
	b.eq	.LBB1_13
.Ltmp197:
// %bb.43:                              //   in Loop: Header=BB1_14 Depth=1
	//DEBUG_VALUE: ufs_tagset_bt_get_slowpath:wait <- [DW_OP_deref] $sp
	//DEBUG_VALUE: ufs_tagset_bt_get_slowpath:hctx <- $x21
	//DEBUG_VALUE: ufs_tagset_bt_get_slowpath:bt <- $x20
	//DEBUG_VALUE: ufs_tagset_bt_get_slowpath:data <- $x19
	//DEBUG_VALUE: ufs_tagset_bt_get:data <- $x19
	//DEBUG_VALUE: ufs_tagset_bt_get:bt <- $x20
	//DEBUG_VALUE: ufs_tagset_bt_get:hctx <- $x21
	.loc	130 219 7               // kernel/block/mas_blk_mq_tag.c:219:7
	ldr	x9, [x19, #8]
.Ltmp198:
	.loc	130 219 7 is_stmt 0     // kernel/block/mas_blk_mq_tag.c:219:7
	tbz	w9, #11, .LBB1_47
.Ltmp199:
// %bb.44:                              //   in Loop: Header=BB1_14 Depth=1
	//DEBUG_VALUE: ufs_tagset_bt_get_slowpath:wait <- [DW_OP_deref] $sp
	//DEBUG_VALUE: ufs_tagset_bt_get_slowpath:hctx <- $x21
	//DEBUG_VALUE: ufs_tagset_bt_get_slowpath:bt <- $x20
	//DEBUG_VALUE: ufs_tagset_bt_get_slowpath:data <- $x19
	//DEBUG_VALUE: ufs_tagset_bt_get:data <- $x19
	//DEBUG_VALUE: ufs_tagset_bt_get:bt <- $x20
	//DEBUG_VALUE: ufs_tagset_bt_get:hctx <- $x21
	.loc	130 0 0                 // kernel/block/mas_blk_mq_tag.c:0:0
	ldr	x10, [x8, #304]
	.loc	130 220 8 is_stmt 1     // kernel/block/mas_blk_mq_tag.c:220:8
	tst	x9, x24
.Ltmp200:
	.loc	130 220 8 is_stmt 0     // kernel/block/mas_blk_mq_tag.c:220:8
	b.ne	.LBB1_48
.Ltmp201:
// %bb.45:                              //   in Loop: Header=BB1_14 Depth=1
	//DEBUG_VALUE: ufs_tagset_bt_get_slowpath:wait <- [DW_OP_deref] $sp
	//DEBUG_VALUE: ufs_tagset_bt_get_slowpath:hctx <- $x21
	//DEBUG_VALUE: ufs_tagset_bt_get_slowpath:bt <- $x20
	//DEBUG_VALUE: ufs_tagset_bt_get_slowpath:data <- $x19
	//DEBUG_VALUE: ufs_tagset_bt_get:data <- $x19
	//DEBUG_VALUE: ufs_tagset_bt_get:bt <- $x20
	//DEBUG_VALUE: ufs_tagset_bt_get:hctx <- $x21
	.loc	130 221 29 is_stmt 1    // kernel/block/mas_blk_mq_tag.c:221:29
	add	x20, x10, #40           // =40
.Ltmp202:
.LBB1_46:                               //   in Loop: Header=BB1_14 Depth=1
	//DEBUG_VALUE: ufs_tagset_bt_get_slowpath:wait <- [DW_OP_deref] $sp
	//DEBUG_VALUE: ufs_tagset_bt_get_slowpath:hctx <- $x21
	//DEBUG_VALUE: ufs_tagset_bt_get_slowpath:data <- $x19
	//DEBUG_VALUE: ufs_tagset_bt_get:data <- $x19
	//DEBUG_VALUE: ufs_tagset_bt_get:hctx <- $x21
	//DEBUG_VALUE: ufs_tagset_bt_get_slowpath:bt <- $x20
	.loc	130 0 29 is_stmt 0      // kernel/block/mas_blk_mq_tag.c:0:29
	mov	x21, x8
.Ltmp203:
	b	.LBB1_13
.Ltmp204:
.LBB1_47:                               //   in Loop: Header=BB1_14 Depth=1
	//DEBUG_VALUE: ufs_tagset_bt_get_slowpath:wait <- [DW_OP_deref] $sp
	//DEBUG_VALUE: ufs_tagset_bt_get_slowpath:hctx <- $x21
	//DEBUG_VALUE: ufs_tagset_bt_get_slowpath:bt <- $x20
	//DEBUG_VALUE: ufs_tagset_bt_get_slowpath:data <- $x19
	//DEBUG_VALUE: ufs_tagset_bt_get:data <- $x19
	//DEBUG_VALUE: ufs_tagset_bt_get:bt <- $x20
	//DEBUG_VALUE: ufs_tagset_bt_get:hctx <- $x21
	.loc	130 225 22 is_stmt 1    // kernel/block/mas_blk_mq_tag.c:225:22
	ldr	x9, [x8, #304]
	.loc	130 225 28 is_stmt 0    // kernel/block/mas_blk_mq_tag.c:225:28
	add	x20, x9, #96            // =96
.Ltmp205:
	.loc	130 0 28                // kernel/block/mas_blk_mq_tag.c:0:28
	b	.LBB1_46
.Ltmp206:
.LBB1_48:                               //   in Loop: Header=BB1_14 Depth=1
	//DEBUG_VALUE: ufs_tagset_bt_get_slowpath:wait <- [DW_OP_deref] $sp
	//DEBUG_VALUE: ufs_tagset_bt_get_slowpath:hctx <- $x21
	//DEBUG_VALUE: ufs_tagset_bt_get_slowpath:bt <- $x20
	//DEBUG_VALUE: ufs_tagset_bt_get_slowpath:data <- $x19
	//DEBUG_VALUE: ufs_tagset_bt_get:data <- $x19
	//DEBUG_VALUE: ufs_tagset_bt_get:bt <- $x20
	//DEBUG_VALUE: ufs_tagset_bt_get:hctx <- $x21
	.loc	130 223 29 is_stmt 1    // kernel/block/mas_blk_mq_tag.c:223:29
	add	x20, x10, #152          // =152
.Ltmp207:
	.loc	130 0 29 is_stmt 0      // kernel/block/mas_blk_mq_tag.c:0:29
	b	.LBB1_46
.Ltmp208:
.LBB1_49:
	//DEBUG_VALUE: ufs_tagset_bt_get:hctx <- $x2
	//DEBUG_VALUE: ufs_tagset_bt_get:bt <- $x1
	//DEBUG_VALUE: ufs_tagset_bt_get:data <- $x0
	mov	w23, #-1
.Ltmp209:
.LBB1_50:
	adrp	x9, __stack_chk_guard
	ldr	x8, [sp, #40]
	ldr	x9, [x9, :lo12:__stack_chk_guard]
	cmp	x9, x8
	b.ne	.LBB1_56
// %bb.51:
	.loc	130 260 1 is_stmt 1     // kernel/block/mas_blk_mq_tag.c:260:1
	mov	w0, w23
	ldp	x29, x30, [sp, #128]    // 16-byte Folded Reload
	ldp	x20, x19, [sp, #112]    // 16-byte Folded Reload
	ldp	x22, x21, [sp, #96]     // 16-byte Folded Reload
	ldp	x24, x23, [sp, #80]     // 16-byte Folded Reload
	ldp	x26, x25, [sp, #64]     // 16-byte Folded Reload
	ldp	x28, x27, [sp, #48]     // 16-byte Folded Reload
	add	sp, sp, #144            // =144
	ret
.LBB1_52:
.Ltmp210:
	//DEBUG_VALUE: ufs_try_get_tag:hctx <- $x21
	//DEBUG_VALUE: ufs_try_get_tag:bt <- $x20
	//DEBUG_VALUE: ufs_try_get_tag:data <- $x19
	//DEBUG_VALUE: ufs_tagset_bt_get_slowpath:wait <- [DW_OP_deref] $sp
	//DEBUG_VALUE: ufs_tagset_bt_get_slowpath:hctx <- $x21
	//DEBUG_VALUE: ufs_tagset_bt_get_slowpath:bt <- $x20
	//DEBUG_VALUE: ufs_tagset_bt_get_slowpath:data <- $x19
	//DEBUG_VALUE: ufs_tagset_bt_get:data <- $x19
	//DEBUG_VALUE: ufs_tagset_bt_get:bt <- $x20
	//DEBUG_VALUE: ufs_tagset_bt_get:hctx <- $x21
	.loc	130 0 1 is_stmt 0       // kernel/block/mas_blk_mq_tag.c:0:1
	mov	w23, w0
.Ltmp211:
	//DEBUG_VALUE: ufs_try_get_tag:tag <- $w23
	.loc	130 232 6 is_stmt 1     // kernel/block/mas_blk_mq_tag.c:232:6
	ldrb	w8, [x19, #10]
	tbz	w8, #7, .LBB1_54
.Ltmp212:
.LBB1_53:
	//DEBUG_VALUE: ufs_tagset_bt_get_slowpath:wait <- [DW_OP_deref] $sp
	//DEBUG_VALUE: ufs_tagset_bt_get_slowpath:hctx <- $x21
	//DEBUG_VALUE: ufs_tagset_bt_get_slowpath:bt <- $x20
	//DEBUG_VALUE: ufs_tagset_bt_get_slowpath:data <- $x19
	//DEBUG_VALUE: ufs_tagset_bt_get:data <- $x19
	//DEBUG_VALUE: ufs_tagset_bt_get:bt <- $x20
	//DEBUG_VALUE: ufs_tagset_bt_get:hctx <- $x21
	.loc	130 233 3               // kernel/block/mas_blk_mq_tag.c:233:3
	mov	x0, x19
	bl	ufs_mq_dec_vip_wait_cnt
.Ltmp213:
.LBB1_54:
	//DEBUG_VALUE: ufs_tagset_bt_get_slowpath:wait <- [DW_OP_deref] $sp
	//DEBUG_VALUE: ufs_tagset_bt_get_slowpath:hctx <- $x21
	//DEBUG_VALUE: ufs_tagset_bt_get_slowpath:bt <- $x20
	//DEBUG_VALUE: ufs_tagset_bt_get_slowpath:data <- $x19
	//DEBUG_VALUE: ufs_tagset_bt_get:data <- $x19
	//DEBUG_VALUE: ufs_tagset_bt_get:bt <- $x20
	//DEBUG_VALUE: ufs_tagset_bt_get:hctx <- $x21
	//DEBUG_VALUE: ufs_tagset_bt_get_slowpath:wait <- [DW_OP_deref] $sp
	.loc	130 235 2               // kernel/block/mas_blk_mq_tag.c:235:2
	mov	x1, sp
	mov	x0, x22
	bl	finish_wait
	b	.LBB1_50
.Ltmp214:
.LBB1_55:
	//DEBUG_VALUE: ufs_tagset_bt_get_slowpath:wait <- [DW_OP_deref] $sp
	//DEBUG_VALUE: ufs_tagset_bt_get_slowpath:hctx <- $x21
	//DEBUG_VALUE: ufs_tagset_bt_get_slowpath:bt <- $x20
	//DEBUG_VALUE: ufs_tagset_bt_get_slowpath:data <- $x19
	//DEBUG_VALUE: ufs_tagset_bt_get:data <- $x19
	//DEBUG_VALUE: ufs_tagset_bt_get:bt <- $x20
	//DEBUG_VALUE: ufs_tagset_bt_get:hctx <- $x21
	.loc	130 0 2 is_stmt 0       // kernel/block/mas_blk_mq_tag.c:0:2
	mov	w23, #-1
	.loc	130 232 6 is_stmt 1     // kernel/block/mas_blk_mq_tag.c:232:6
	ldrb	w8, [x19, #10]
	tbnz	w8, #7, .LBB1_53
	b	.LBB1_54
.Ltmp215:
.LBB1_56:
	.loc	130 0 6 is_stmt 0       // kernel/block/mas_blk_mq_tag.c:0:6
	bl	__stack_chk_fail
.Lfunc_end1:
	.size	ufs_tagset_bt_get, .Lfunc_end1-ufs_tagset_bt_get
	.cfi_endproc
	.file	135 "/mnt/disk/jenkins/ci/workspace/chipset_pipeline_release/opensource/component_code/vendor/huawei/extra/build/build_script/kirin_kernel_release/kernel/include/linux/thread_info.h"
                                        // -- End function
	.section	.text.ufs_tagset_all_tag_busy_iter,"ax",@progbits
	.hidden	ufs_tagset_all_tag_busy_iter // -- Begin function ufs_tagset_all_tag_busy_iter
	.globl	ufs_tagset_all_tag_busy_iter
	.p2align	2
	.type	ufs_tagset_all_tag_busy_iter,@function
ufs_tagset_all_tag_busy_iter:           // @ufs_tagset_all_tag_busy_iter
.Lfunc_begin2:
	.loc	130 372 0 is_stmt 1     // kernel/block/mas_blk_mq_tag.c:372:0
	.cfi_startproc
// %bb.0:
	//DEBUG_VALUE: ufs_tagset_all_tag_busy_iter:tags <- $x0
	//DEBUG_VALUE: ufs_tagset_all_tag_busy_iter:fn <- $x1
	//DEBUG_VALUE: ufs_tagset_all_tag_busy_iter:priv <- $x2
	//DEBUG_VALUE: ufs_tagset_bt_tags_for_each:bt <- [DW_OP_plus_uconst 40, DW_OP_stack_value] $x0
	stp	x26, x25, [sp, #-80]!   // 16-byte Folded Spill
	stp	x24, x23, [sp, #16]     // 16-byte Folded Spill
	stp	x22, x21, [sp, #32]     // 16-byte Folded Spill
	stp	x20, x19, [sp, #48]     // 16-byte Folded Spill
	stp	x29, x30, [sp, #64]     // 16-byte Folded Spill
	add	x29, sp, #64            // =64
	.cfi_def_cfa w29, 16
	.cfi_offset w30, -8
	.cfi_offset w29, -16
	.cfi_offset w19, -24
	.cfi_offset w20, -32
	.cfi_offset w21, -40
	.cfi_offset w22, -48
	.cfi_offset w23, -56
	.cfi_offset w24, -64
	.cfi_offset w25, -72
	.cfi_offset w26, -80
.Ltmp216:
	.loc	130 120 23 prologue_end // kernel/block/mas_blk_mq_tag.c:120:23
	ldr	x8, [x0, #208]
	mov	x19, x2
	mov	x20, x0
.Ltmp217:
	//DEBUG_VALUE: ufs_tagset_bt_tags_for_each:iter_data <- undef
	//DEBUG_VALUE: ufs_tagset_all_tag_busy_iter:iter_data <- [DW_OP_deref] undef
	//DEBUG_VALUE: ufs_tagset_bt_tags_for_each:bt <- [DW_OP_plus_uconst 40, DW_OP_stack_value] $x20
	//DEBUG_VALUE: ufs_tagset_all_tag_busy_iter:priv <- $x19
	//DEBUG_VALUE: ufs_tagset_all_tag_busy_iter:tags <- $x20
	.loc	130 0 23 is_stmt 0      // kernel/block/mas_blk_mq_tag.c:0:23
	mov	x21, x1
.Ltmp218:
	//DEBUG_VALUE: ufs_tagset_all_tag_busy_iter:fn <- $x21
	.loc	130 120 6               // kernel/block/mas_blk_mq_tag.c:120:6
	cbz	x8, .LBB2_10
.Ltmp219:
// %bb.1:
	//DEBUG_VALUE: ufs_tagset_all_tag_busy_iter:fn <- $x21
	//DEBUG_VALUE: ufs_tagset_all_tag_busy_iter:tags <- $x20
	//DEBUG_VALUE: ufs_tagset_all_tag_busy_iter:priv <- $x19
	//DEBUG_VALUE: ufs_tagset_bt_tags_for_each:bt <- [DW_OP_plus_uconst 40, DW_OP_stack_value] $x20
	//DEBUG_VALUE: sbitmap_for_each_set:sb <- [DW_OP_plus_uconst 40, DW_OP_stack_value] $x20
	//DEBUG_VALUE: sbitmap_for_each_set:data <- undef
	//DEBUG_VALUE: sbitmap_for_each_set:i <- 0
	.loc	97 230 22 is_stmt 1     // kernel/include/linux/sbitmap.h:230:22
	ldr	w8, [x20, #48]
.Ltmp220:
	.loc	97 230 2 is_stmt 0      // kernel/include/linux/sbitmap.h:230:2
	cbz	w8, .LBB2_10
.Ltmp221:
// %bb.2:
	//DEBUG_VALUE: sbitmap_for_each_set:sb <- [DW_OP_plus_uconst 40, DW_OP_stack_value] $x20
	//DEBUG_VALUE: ufs_tagset_all_tag_busy_iter:fn <- $x21
	//DEBUG_VALUE: ufs_tagset_all_tag_busy_iter:tags <- $x20
	//DEBUG_VALUE: ufs_tagset_all_tag_busy_iter:priv <- $x19
	//DEBUG_VALUE: ufs_tagset_bt_tags_for_each:bt <- [DW_OP_plus_uconst 40, DW_OP_stack_value] $x20
	//DEBUG_VALUE: sbitmap_for_each_set:sb <- [DW_OP_plus_uconst 40, DW_OP_stack_value] $x20
	.loc	97 0 2                  // kernel/include/linux/sbitmap.h:0:2
	mov	x24, xzr
.Ltmp222:
.LBB2_3:                                // =>This Loop Header: Depth=1
                                        //     Child Loop BB2_6 Depth 2
	//DEBUG_VALUE: sbitmap_for_each_set:sb <- [DW_OP_plus_uconst 40, DW_OP_stack_value] $x20
	//DEBUG_VALUE: ufs_tagset_all_tag_busy_iter:fn <- $x21
	//DEBUG_VALUE: ufs_tagset_all_tag_busy_iter:tags <- $x20
	//DEBUG_VALUE: ufs_tagset_all_tag_busy_iter:priv <- $x19
	//DEBUG_VALUE: ufs_tagset_bt_tags_for_each:bt <- [DW_OP_plus_uconst 40, DW_OP_stack_value] $x20
	//DEBUG_VALUE: sbitmap_for_each_set:i <- $x24
	.loc	97 231 36 is_stmt 1     // kernel/include/linux/sbitmap.h:231:36
	ldr	x8, [x20, #56]
.Ltmp223:
	.loc	97 234 14               // kernel/include/linux/sbitmap.h:234:14
	add	x22, x8, x24, lsl #6
	ldr	x8, [x22]
.Ltmp224:
	.loc	97 234 7 is_stmt 0      // kernel/include/linux/sbitmap.h:234:7
	cbz	x8, .LBB2_9
.Ltmp225:
// %bb.4:                               //   in Loop: Header=BB2_3 Depth=1
	//DEBUG_VALUE: sbitmap_for_each_set:i <- $x24
	//DEBUG_VALUE: sbitmap_for_each_set:sb <- [DW_OP_plus_uconst 40, DW_OP_stack_value] $x20
	//DEBUG_VALUE: ufs_tagset_all_tag_busy_iter:fn <- $x21
	//DEBUG_VALUE: ufs_tagset_all_tag_busy_iter:tags <- $x20
	//DEBUG_VALUE: ufs_tagset_all_tag_busy_iter:priv <- $x19
	//DEBUG_VALUE: ufs_tagset_bt_tags_for_each:bt <- [DW_OP_plus_uconst 40, DW_OP_stack_value] $x20
	//DEBUG_VALUE: nr <- 0
	.loc	97 240 42 is_stmt 1     // kernel/include/linux/sbitmap.h:240:42
	mov	x25, x22
.Ltmp226:
	.loc	97 238 18               // kernel/include/linux/sbitmap.h:238:18
	ldr	w26, [x20, #44]
.Ltmp227:
	.loc	97 240 42               // kernel/include/linux/sbitmap.h:240:42
	ldr	x1, [x25, #8]!
	.loc	97 240 9 is_stmt 0      // kernel/include/linux/sbitmap.h:240:9
	mov	x0, x22
	mov	x2, xzr
	bl	find_next_bit
.Ltmp228:
	.loc	97 241 20 is_stmt 1     // kernel/include/linux/sbitmap.h:241:20
	ldr	x1, [x25]
.Ltmp229:
	.loc	97 240 9                // kernel/include/linux/sbitmap.h:240:9
	mov	x23, x0
.Ltmp230:
	//DEBUG_VALUE: nr <- undef
	.loc	97 241 8                // kernel/include/linux/sbitmap.h:241:8
	cmp	x1, w23, uxtw
	b.ls	.LBB2_9
.Ltmp231:
// %bb.5:                               //   in Loop: Header=BB2_3 Depth=1
	//DEBUG_VALUE: sbitmap_for_each_set:i <- $x24
	//DEBUG_VALUE: sbitmap_for_each_set:sb <- [DW_OP_plus_uconst 40, DW_OP_stack_value] $x20
	//DEBUG_VALUE: ufs_tagset_all_tag_busy_iter:fn <- $x21
	//DEBUG_VALUE: ufs_tagset_all_tag_busy_iter:tags <- $x20
	//DEBUG_VALUE: ufs_tagset_all_tag_busy_iter:priv <- $x19
	//DEBUG_VALUE: ufs_tagset_bt_tags_for_each:bt <- [DW_OP_plus_uconst 40, DW_OP_stack_value] $x20
	.loc	97 0 8 is_stmt 0        // kernel/include/linux/sbitmap.h:0:8
	lsl	w26, w24, w26
.Ltmp232:
	//DEBUG_VALUE: off <- $w26
.LBB2_6:                                //   Parent Loop BB2_3 Depth=1
                                        // =>  This Inner Loop Header: Depth=2
	//DEBUG_VALUE: off <- $w26
	//DEBUG_VALUE: sbitmap_for_each_set:i <- $x24
	//DEBUG_VALUE: sbitmap_for_each_set:sb <- [DW_OP_plus_uconst 40, DW_OP_stack_value] $x20
	//DEBUG_VALUE: ufs_tagset_all_tag_busy_iter:fn <- $x21
	//DEBUG_VALUE: ufs_tagset_all_tag_busy_iter:tags <- $x20
	//DEBUG_VALUE: ufs_tagset_all_tag_busy_iter:priv <- $x19
	//DEBUG_VALUE: ufs_tagset_bt_tags_for_each:bt <- [DW_OP_plus_uconst 40, DW_OP_stack_value] $x20
	//DEBUG_VALUE: nr <- undef
	//DEBUG_VALUE: ufs_tagset_bt_tags_iter:bitmap <- [DW_OP_plus_uconst 40, DW_OP_stack_value] $x20
	//DEBUG_VALUE: ufs_tagset_bt_tags_iter:bitnr <- undef
	//DEBUG_VALUE: ufs_tagset_bt_tags_iter:data <- undef
	//DEBUG_VALUE: ufs_tagset_bt_tags_iter:iter_data <- undef
	//DEBUG_VALUE: ufs_tagset_bt_tags_iter:tags <- $x20
	//DEBUG_VALUE: ufs_tagset_bt_tags_iter:rq <- undef
	.loc	130 112 6 is_stmt 1     // kernel/block/mas_blk_mq_tag.c:112:6
	cbz	x21, .LBB2_8
.Ltmp233:
// %bb.7:                               //   in Loop: Header=BB2_6 Depth=2
	//DEBUG_VALUE: ufs_tagset_bt_tags_iter:tags <- $x20
	//DEBUG_VALUE: ufs_tagset_bt_tags_iter:bitmap <- [DW_OP_plus_uconst 40, DW_OP_stack_value] $x20
	//DEBUG_VALUE: off <- $w26
	//DEBUG_VALUE: sbitmap_for_each_set:i <- $x24
	//DEBUG_VALUE: sbitmap_for_each_set:sb <- [DW_OP_plus_uconst 40, DW_OP_stack_value] $x20
	//DEBUG_VALUE: ufs_tagset_all_tag_busy_iter:fn <- $x21
	//DEBUG_VALUE: ufs_tagset_all_tag_busy_iter:tags <- $x20
	//DEBUG_VALUE: ufs_tagset_all_tag_busy_iter:priv <- $x19
	//DEBUG_VALUE: ufs_tagset_bt_tags_for_each:bt <- [DW_OP_plus_uconst 40, DW_OP_stack_value] $x20
	//DEBUG_VALUE: nr <- $w23
	//DEBUG_VALUE: nr <- [DW_OP_plus_uconst 1, DW_OP_stack_value] $w23
	.loc	130 110 13              // kernel/block/mas_blk_mq_tag.c:110:13
	ldr	x8, [x20, #208]
.Ltmp234:
	.loc	97 244 20               // kernel/include/linux/sbitmap.h:244:20
	add	w9, w26, w23
.Ltmp235:
	//DEBUG_VALUE: ufs_tagset_bt_tags_iter:bitnr <- $w9
	.loc	130 113 3               // kernel/block/mas_blk_mq_tag.c:113:3
	mov	x1, x19
	mov	w2, wzr
.Ltmp236:
	.loc	130 110 7               // kernel/block/mas_blk_mq_tag.c:110:7
	ldr	x0, [x8, w9, uxtw #3]
.Ltmp237:
	//DEBUG_VALUE: ufs_tagset_bt_tags_iter:rq <- $x0
	.loc	130 113 3               // kernel/block/mas_blk_mq_tag.c:113:3
	blr	x21
.Ltmp238:
	.loc	97 240 42               // kernel/include/linux/sbitmap.h:240:42
	ldr	x1, [x25]
.Ltmp239:
.LBB2_8:                                //   in Loop: Header=BB2_6 Depth=2
	//DEBUG_VALUE: off <- $w26
	//DEBUG_VALUE: sbitmap_for_each_set:i <- $x24
	//DEBUG_VALUE: sbitmap_for_each_set:sb <- [DW_OP_plus_uconst 40, DW_OP_stack_value] $x20
	//DEBUG_VALUE: ufs_tagset_all_tag_busy_iter:fn <- $x21
	//DEBUG_VALUE: ufs_tagset_all_tag_busy_iter:tags <- $x20
	//DEBUG_VALUE: ufs_tagset_all_tag_busy_iter:priv <- $x19
	//DEBUG_VALUE: ufs_tagset_bt_tags_for_each:bt <- [DW_OP_plus_uconst 40, DW_OP_stack_value] $x20
	.loc	97 247 6                // kernel/include/linux/sbitmap.h:247:6
	add	w2, w23, #1             // =1
	.loc	97 240 9                // kernel/include/linux/sbitmap.h:240:9
	mov	x0, x22
	bl	find_next_bit
.Ltmp240:
	.loc	97 241 20               // kernel/include/linux/sbitmap.h:241:20
	ldr	x1, [x25]
.Ltmp241:
	.loc	97 240 9                // kernel/include/linux/sbitmap.h:240:9
	mov	x23, x0
.Ltmp242:
	//DEBUG_VALUE: nr <- undef
	.loc	97 241 8                // kernel/include/linux/sbitmap.h:241:8
	cmp	x1, w23, uxtw
	b.hi	.LBB2_6
.Ltmp243:
.LBB2_9:                                //   in Loop: Header=BB2_3 Depth=1
	//DEBUG_VALUE: sbitmap_for_each_set:i <- $x24
	//DEBUG_VALUE: sbitmap_for_each_set:sb <- [DW_OP_plus_uconst 40, DW_OP_stack_value] $x20
	//DEBUG_VALUE: ufs_tagset_all_tag_busy_iter:fn <- $x21
	//DEBUG_VALUE: ufs_tagset_all_tag_busy_iter:tags <- $x20
	//DEBUG_VALUE: ufs_tagset_all_tag_busy_iter:priv <- $x19
	//DEBUG_VALUE: ufs_tagset_bt_tags_for_each:bt <- [DW_OP_plus_uconst 40, DW_OP_stack_value] $x20
	.loc	97 230 22               // kernel/include/linux/sbitmap.h:230:22
	ldr	w8, [x20, #48]
	.loc	97 230 31 is_stmt 0     // kernel/include/linux/sbitmap.h:230:31
	add	x24, x24, #1            // =1
.Ltmp244:
	//DEBUG_VALUE: sbitmap_for_each_set:i <- [DW_OP_plus_uconst 1, DW_OP_stack_value] undef
	.loc	97 230 2                // kernel/include/linux/sbitmap.h:230:2
	cmp	x24, x8
	b.lo	.LBB2_3
.Ltmp245:
.LBB2_10:
	//DEBUG_VALUE: ufs_tagset_all_tag_busy_iter:fn <- $x21
	//DEBUG_VALUE: ufs_tagset_all_tag_busy_iter:tags <- $x20
	//DEBUG_VALUE: ufs_tagset_all_tag_busy_iter:priv <- $x19
	.loc	130 383 12 is_stmt 1    // kernel/block/mas_blk_mq_tag.c:383:12
	ldr	w8, [x20, #8]
.Ltmp246:
	.loc	130 383 6 is_stmt 0     // kernel/block/mas_blk_mq_tag.c:383:6
	cbz	w8, .LBB2_21
.Ltmp247:
// %bb.11:
	//DEBUG_VALUE: ufs_tagset_all_tag_busy_iter:fn <- $x21
	//DEBUG_VALUE: ufs_tagset_all_tag_busy_iter:tags <- $x20
	//DEBUG_VALUE: ufs_tagset_all_tag_busy_iter:priv <- $x19
	//DEBUG_VALUE: ufs_tagset_all_tag_busy_iter:iter_data <- [DW_OP_deref] undef
	//DEBUG_VALUE: ufs_tagset_bt_tags_for_each:bt <- [DW_OP_plus_uconst 152, DW_OP_stack_value] $x20
	//DEBUG_VALUE: ufs_tagset_bt_tags_for_each:iter_data <- undef
	.loc	130 120 23 is_stmt 1    // kernel/block/mas_blk_mq_tag.c:120:23
	ldr	x8, [x20, #208]
.Ltmp248:
	.loc	130 120 6 is_stmt 0     // kernel/block/mas_blk_mq_tag.c:120:6
	cbz	x8, .LBB2_21
.Ltmp249:
// %bb.12:
	//DEBUG_VALUE: ufs_tagset_bt_tags_for_each:bt <- [DW_OP_plus_uconst 152, DW_OP_stack_value] $x20
	//DEBUG_VALUE: ufs_tagset_all_tag_busy_iter:fn <- $x21
	//DEBUG_VALUE: ufs_tagset_all_tag_busy_iter:tags <- $x20
	//DEBUG_VALUE: ufs_tagset_all_tag_busy_iter:priv <- $x19
	//DEBUG_VALUE: sbitmap_for_each_set:sb <- [DW_OP_plus_uconst 152, DW_OP_stack_value] $x20
	//DEBUG_VALUE: sbitmap_for_each_set:data <- undef
	//DEBUG_VALUE: sbitmap_for_each_set:i <- 0
	.loc	97 230 22 is_stmt 1     // kernel/include/linux/sbitmap.h:230:22
	ldr	w8, [x20, #160]
.Ltmp250:
	.loc	97 230 2 is_stmt 0      // kernel/include/linux/sbitmap.h:230:2
	cbz	w8, .LBB2_21
.Ltmp251:
// %bb.13:
	//DEBUG_VALUE: sbitmap_for_each_set:sb <- [DW_OP_plus_uconst 152, DW_OP_stack_value] $x20
	//DEBUG_VALUE: ufs_tagset_bt_tags_for_each:bt <- [DW_OP_plus_uconst 152, DW_OP_stack_value] $x20
	//DEBUG_VALUE: ufs_tagset_all_tag_busy_iter:fn <- $x21
	//DEBUG_VALUE: ufs_tagset_all_tag_busy_iter:tags <- $x20
	//DEBUG_VALUE: ufs_tagset_all_tag_busy_iter:priv <- $x19
	//DEBUG_VALUE: sbitmap_for_each_set:sb <- [DW_OP_plus_uconst 152, DW_OP_stack_value] $x20
	.loc	97 0 2                  // kernel/include/linux/sbitmap.h:0:2
	mov	x24, xzr
.Ltmp252:
.LBB2_14:                               // =>This Loop Header: Depth=1
                                        //     Child Loop BB2_17 Depth 2
	//DEBUG_VALUE: sbitmap_for_each_set:sb <- [DW_OP_plus_uconst 152, DW_OP_stack_value] $x20
	//DEBUG_VALUE: ufs_tagset_bt_tags_for_each:bt <- [DW_OP_plus_uconst 152, DW_OP_stack_value] $x20
	//DEBUG_VALUE: ufs_tagset_all_tag_busy_iter:fn <- $x21
	//DEBUG_VALUE: ufs_tagset_all_tag_busy_iter:tags <- $x20
	//DEBUG_VALUE: ufs_tagset_all_tag_busy_iter:priv <- $x19
	//DEBUG_VALUE: sbitmap_for_each_set:i <- $x24
	.loc	97 231 36 is_stmt 1     // kernel/include/linux/sbitmap.h:231:36
	ldr	x8, [x20, #168]
.Ltmp253:
	.loc	97 234 14               // kernel/include/linux/sbitmap.h:234:14
	add	x22, x8, x24, lsl #6
	ldr	x8, [x22]
.Ltmp254:
	.loc	97 234 7 is_stmt 0      // kernel/include/linux/sbitmap.h:234:7
	cbz	x8, .LBB2_20
.Ltmp255:
// %bb.15:                              //   in Loop: Header=BB2_14 Depth=1
	//DEBUG_VALUE: sbitmap_for_each_set:i <- $x24
	//DEBUG_VALUE: sbitmap_for_each_set:sb <- [DW_OP_plus_uconst 152, DW_OP_stack_value] $x20
	//DEBUG_VALUE: ufs_tagset_bt_tags_for_each:bt <- [DW_OP_plus_uconst 152, DW_OP_stack_value] $x20
	//DEBUG_VALUE: ufs_tagset_all_tag_busy_iter:fn <- $x21
	//DEBUG_VALUE: ufs_tagset_all_tag_busy_iter:tags <- $x20
	//DEBUG_VALUE: ufs_tagset_all_tag_busy_iter:priv <- $x19
	//DEBUG_VALUE: nr <- 0
	.loc	97 240 42 is_stmt 1     // kernel/include/linux/sbitmap.h:240:42
	mov	x25, x22
.Ltmp256:
	.loc	97 238 18               // kernel/include/linux/sbitmap.h:238:18
	ldr	w26, [x20, #156]
.Ltmp257:
	.loc	97 240 42               // kernel/include/linux/sbitmap.h:240:42
	ldr	x1, [x25, #8]!
	.loc	97 240 9 is_stmt 0      // kernel/include/linux/sbitmap.h:240:9
	mov	x0, x22
	mov	x2, xzr
	bl	find_next_bit
.Ltmp258:
	.loc	97 241 20 is_stmt 1     // kernel/include/linux/sbitmap.h:241:20
	ldr	x1, [x25]
.Ltmp259:
	.loc	97 240 9                // kernel/include/linux/sbitmap.h:240:9
	mov	x23, x0
.Ltmp260:
	//DEBUG_VALUE: nr <- undef
	.loc	97 241 8                // kernel/include/linux/sbitmap.h:241:8
	cmp	x1, w23, uxtw
	b.ls	.LBB2_20
.Ltmp261:
// %bb.16:                              //   in Loop: Header=BB2_14 Depth=1
	//DEBUG_VALUE: sbitmap_for_each_set:i <- $x24
	//DEBUG_VALUE: sbitmap_for_each_set:sb <- [DW_OP_plus_uconst 152, DW_OP_stack_value] $x20
	//DEBUG_VALUE: ufs_tagset_bt_tags_for_each:bt <- [DW_OP_plus_uconst 152, DW_OP_stack_value] $x20
	//DEBUG_VALUE: ufs_tagset_all_tag_busy_iter:fn <- $x21
	//DEBUG_VALUE: ufs_tagset_all_tag_busy_iter:tags <- $x20
	//DEBUG_VALUE: ufs_tagset_all_tag_busy_iter:priv <- $x19
	.loc	97 0 8 is_stmt 0        // kernel/include/linux/sbitmap.h:0:8
	lsl	w26, w24, w26
.Ltmp262:
	//DEBUG_VALUE: off <- $w26
.LBB2_17:                               //   Parent Loop BB2_14 Depth=1
                                        // =>  This Inner Loop Header: Depth=2
	//DEBUG_VALUE: off <- $w26
	//DEBUG_VALUE: sbitmap_for_each_set:i <- $x24
	//DEBUG_VALUE: sbitmap_for_each_set:sb <- [DW_OP_plus_uconst 152, DW_OP_stack_value] $x20
	//DEBUG_VALUE: ufs_tagset_bt_tags_for_each:bt <- [DW_OP_plus_uconst 152, DW_OP_stack_value] $x20
	//DEBUG_VALUE: ufs_tagset_all_tag_busy_iter:fn <- $x21
	//DEBUG_VALUE: ufs_tagset_all_tag_busy_iter:tags <- $x20
	//DEBUG_VALUE: ufs_tagset_all_tag_busy_iter:priv <- $x19
	//DEBUG_VALUE: nr <- undef
	//DEBUG_VALUE: ufs_tagset_bt_tags_iter:bitmap <- [DW_OP_plus_uconst 152, DW_OP_stack_value] $x20
	//DEBUG_VALUE: ufs_tagset_bt_tags_iter:bitnr <- undef
	//DEBUG_VALUE: ufs_tagset_bt_tags_iter:data <- undef
	//DEBUG_VALUE: ufs_tagset_bt_tags_iter:iter_data <- undef
	//DEBUG_VALUE: ufs_tagset_bt_tags_iter:tags <- $x20
	//DEBUG_VALUE: ufs_tagset_bt_tags_iter:rq <- undef
	.loc	130 112 6 is_stmt 1     // kernel/block/mas_blk_mq_tag.c:112:6
	cbz	x21, .LBB2_19
.Ltmp263:
// %bb.18:                              //   in Loop: Header=BB2_17 Depth=2
	//DEBUG_VALUE: ufs_tagset_bt_tags_iter:tags <- $x20
	//DEBUG_VALUE: ufs_tagset_bt_tags_iter:bitmap <- [DW_OP_plus_uconst 152, DW_OP_stack_value] $x20
	//DEBUG_VALUE: off <- $w26
	//DEBUG_VALUE: sbitmap_for_each_set:i <- $x24
	//DEBUG_VALUE: sbitmap_for_each_set:sb <- [DW_OP_plus_uconst 152, DW_OP_stack_value] $x20
	//DEBUG_VALUE: ufs_tagset_bt_tags_for_each:bt <- [DW_OP_plus_uconst 152, DW_OP_stack_value] $x20
	//DEBUG_VALUE: ufs_tagset_all_tag_busy_iter:fn <- $x21
	//DEBUG_VALUE: ufs_tagset_all_tag_busy_iter:tags <- $x20
	//DEBUG_VALUE: ufs_tagset_all_tag_busy_iter:priv <- $x19
	.loc	130 108 18              // kernel/block/mas_blk_mq_tag.c:108:18
	ldr	w8, [x20, #20]
.Ltmp264:
	//DEBUG_VALUE: nr <- [DW_OP_plus_uconst 1, DW_OP_stack_value] $w23
	//DEBUG_VALUE: nr <- $w23
	.loc	130 110 13              // kernel/block/mas_blk_mq_tag.c:110:13
	ldr	x9, [x20, #208]
.Ltmp265:
	.loc	97 244 20               // kernel/include/linux/sbitmap.h:244:20
	add	w10, w26, w23
.Ltmp266:
	//DEBUG_VALUE: ufs_tagset_bt_tags_iter:bitnr <- $w10
	.loc	130 113 3               // kernel/block/mas_blk_mq_tag.c:113:3
	mov	x1, x19
.Ltmp267:
	.loc	130 108 9               // kernel/block/mas_blk_mq_tag.c:108:9
	add	w8, w10, w8
.Ltmp268:
	//DEBUG_VALUE: ufs_tagset_bt_tags_iter:bitnr <- $w8
	.loc	130 110 7               // kernel/block/mas_blk_mq_tag.c:110:7
	ldr	x0, [x9, w8, uxtw #3]
.Ltmp269:
	//DEBUG_VALUE: ufs_tagset_bt_tags_iter:rq <- $x0
	.loc	130 113 3               // kernel/block/mas_blk_mq_tag.c:113:3
	mov	w2, wzr
	blr	x21
.Ltmp270:
	.loc	97 240 42               // kernel/include/linux/sbitmap.h:240:42
	ldr	x1, [x25]
.Ltmp271:
.LBB2_19:                               //   in Loop: Header=BB2_17 Depth=2
	//DEBUG_VALUE: off <- $w26
	//DEBUG_VALUE: sbitmap_for_each_set:i <- $x24
	//DEBUG_VALUE: sbitmap_for_each_set:sb <- [DW_OP_plus_uconst 152, DW_OP_stack_value] $x20
	//DEBUG_VALUE: ufs_tagset_bt_tags_for_each:bt <- [DW_OP_plus_uconst 152, DW_OP_stack_value] $x20
	//DEBUG_VALUE: ufs_tagset_all_tag_busy_iter:fn <- $x21
	//DEBUG_VALUE: ufs_tagset_all_tag_busy_iter:tags <- $x20
	//DEBUG_VALUE: ufs_tagset_all_tag_busy_iter:priv <- $x19
	.loc	97 247 6                // kernel/include/linux/sbitmap.h:247:6
	add	w2, w23, #1             // =1
	.loc	97 240 9                // kernel/include/linux/sbitmap.h:240:9
	mov	x0, x22
	bl	find_next_bit
.Ltmp272:
	.loc	97 241 20               // kernel/include/linux/sbitmap.h:241:20
	ldr	x1, [x25]
.Ltmp273:
	.loc	97 240 9                // kernel/include/linux/sbitmap.h:240:9
	mov	x23, x0
.Ltmp274:
	//DEBUG_VALUE: nr <- undef
	.loc	97 241 8                // kernel/include/linux/sbitmap.h:241:8
	cmp	x1, w23, uxtw
	b.hi	.LBB2_17
.Ltmp275:
.LBB2_20:                               //   in Loop: Header=BB2_14 Depth=1
	//DEBUG_VALUE: sbitmap_for_each_set:i <- $x24
	//DEBUG_VALUE: sbitmap_for_each_set:sb <- [DW_OP_plus_uconst 152, DW_OP_stack_value] $x20
	//DEBUG_VALUE: ufs_tagset_bt_tags_for_each:bt <- [DW_OP_plus_uconst 152, DW_OP_stack_value] $x20
	//DEBUG_VALUE: ufs_tagset_all_tag_busy_iter:fn <- $x21
	//DEBUG_VALUE: ufs_tagset_all_tag_busy_iter:tags <- $x20
	//DEBUG_VALUE: ufs_tagset_all_tag_busy_iter:priv <- $x19
	.loc	97 230 22               // kernel/include/linux/sbitmap.h:230:22
	ldr	w8, [x20, #160]
	.loc	97 230 31 is_stmt 0     // kernel/include/linux/sbitmap.h:230:31
	add	x24, x24, #1            // =1
.Ltmp276:
	//DEBUG_VALUE: sbitmap_for_each_set:i <- [DW_OP_plus_uconst 1, DW_OP_stack_value] undef
	.loc	97 230 2                // kernel/include/linux/sbitmap.h:230:2
	cmp	x24, x8
	b.lo	.LBB2_14
.Ltmp277:
.LBB2_21:
	//DEBUG_VALUE: ufs_tagset_all_tag_busy_iter:fn <- $x21
	//DEBUG_VALUE: ufs_tagset_all_tag_busy_iter:tags <- $x20
	//DEBUG_VALUE: ufs_tagset_all_tag_busy_iter:priv <- $x19
	.loc	130 388 12 is_stmt 1    // kernel/block/mas_blk_mq_tag.c:388:12
	ldr	w8, [x20, #4]
.Ltmp278:
	.loc	130 388 6 is_stmt 0     // kernel/block/mas_blk_mq_tag.c:388:6
	cbz	w8, .LBB2_32
.Ltmp279:
// %bb.22:
	//DEBUG_VALUE: ufs_tagset_all_tag_busy_iter:fn <- $x21
	//DEBUG_VALUE: ufs_tagset_all_tag_busy_iter:tags <- $x20
	//DEBUG_VALUE: ufs_tagset_all_tag_busy_iter:priv <- $x19
	//DEBUG_VALUE: ufs_tagset_all_tag_busy_iter:iter_data <- [DW_OP_deref] undef
	//DEBUG_VALUE: ufs_tagset_bt_tags_for_each:bt <- [DW_OP_plus_uconst 96, DW_OP_stack_value] $x20
	//DEBUG_VALUE: ufs_tagset_bt_tags_for_each:iter_data <- undef
	.loc	130 120 23 is_stmt 1    // kernel/block/mas_blk_mq_tag.c:120:23
	ldr	x8, [x20, #208]
.Ltmp280:
	.loc	130 120 6 is_stmt 0     // kernel/block/mas_blk_mq_tag.c:120:6
	cbz	x8, .LBB2_32
.Ltmp281:
// %bb.23:
	//DEBUG_VALUE: ufs_tagset_bt_tags_for_each:bt <- [DW_OP_plus_uconst 96, DW_OP_stack_value] $x20
	//DEBUG_VALUE: ufs_tagset_all_tag_busy_iter:fn <- $x21
	//DEBUG_VALUE: ufs_tagset_all_tag_busy_iter:tags <- $x20
	//DEBUG_VALUE: ufs_tagset_all_tag_busy_iter:priv <- $x19
	//DEBUG_VALUE: sbitmap_for_each_set:sb <- [DW_OP_plus_uconst 96, DW_OP_stack_value] $x20
	//DEBUG_VALUE: sbitmap_for_each_set:data <- undef
	//DEBUG_VALUE: sbitmap_for_each_set:i <- 0
	.loc	97 230 22 is_stmt 1     // kernel/include/linux/sbitmap.h:230:22
	ldr	w8, [x20, #104]
.Ltmp282:
	.loc	97 230 2 is_stmt 0      // kernel/include/linux/sbitmap.h:230:2
	cbz	w8, .LBB2_32
.Ltmp283:
// %bb.24:
	//DEBUG_VALUE: sbitmap_for_each_set:sb <- [DW_OP_plus_uconst 96, DW_OP_stack_value] $x20
	//DEBUG_VALUE: ufs_tagset_bt_tags_for_each:bt <- [DW_OP_plus_uconst 96, DW_OP_stack_value] $x20
	//DEBUG_VALUE: ufs_tagset_all_tag_busy_iter:fn <- $x21
	//DEBUG_VALUE: ufs_tagset_all_tag_busy_iter:tags <- $x20
	//DEBUG_VALUE: ufs_tagset_all_tag_busy_iter:priv <- $x19
	//DEBUG_VALUE: sbitmap_for_each_set:sb <- [DW_OP_plus_uconst 96, DW_OP_stack_value] $x20
	.loc	97 0 2                  // kernel/include/linux/sbitmap.h:0:2
	mov	x24, xzr
.Ltmp284:
.LBB2_25:                               // =>This Loop Header: Depth=1
                                        //     Child Loop BB2_28 Depth 2
	//DEBUG_VALUE: sbitmap_for_each_set:sb <- [DW_OP_plus_uconst 96, DW_OP_stack_value] $x20
	//DEBUG_VALUE: ufs_tagset_bt_tags_for_each:bt <- [DW_OP_plus_uconst 96, DW_OP_stack_value] $x20
	//DEBUG_VALUE: ufs_tagset_all_tag_busy_iter:fn <- $x21
	//DEBUG_VALUE: ufs_tagset_all_tag_busy_iter:tags <- $x20
	//DEBUG_VALUE: ufs_tagset_all_tag_busy_iter:priv <- $x19
	//DEBUG_VALUE: sbitmap_for_each_set:i <- $x24
	.loc	97 231 36 is_stmt 1     // kernel/include/linux/sbitmap.h:231:36
	ldr	x8, [x20, #112]
.Ltmp285:
	.loc	97 234 14               // kernel/include/linux/sbitmap.h:234:14
	add	x22, x8, x24, lsl #6
	ldr	x8, [x22]
.Ltmp286:
	.loc	97 234 7 is_stmt 0      // kernel/include/linux/sbitmap.h:234:7
	cbz	x8, .LBB2_31
.Ltmp287:
// %bb.26:                              //   in Loop: Header=BB2_25 Depth=1
	//DEBUG_VALUE: sbitmap_for_each_set:i <- $x24
	//DEBUG_VALUE: sbitmap_for_each_set:sb <- [DW_OP_plus_uconst 96, DW_OP_stack_value] $x20
	//DEBUG_VALUE: ufs_tagset_bt_tags_for_each:bt <- [DW_OP_plus_uconst 96, DW_OP_stack_value] $x20
	//DEBUG_VALUE: ufs_tagset_all_tag_busy_iter:fn <- $x21
	//DEBUG_VALUE: ufs_tagset_all_tag_busy_iter:tags <- $x20
	//DEBUG_VALUE: ufs_tagset_all_tag_busy_iter:priv <- $x19
	//DEBUG_VALUE: nr <- 0
	.loc	97 240 42 is_stmt 1     // kernel/include/linux/sbitmap.h:240:42
	mov	x25, x22
.Ltmp288:
	.loc	97 238 18               // kernel/include/linux/sbitmap.h:238:18
	ldr	w26, [x20, #100]
.Ltmp289:
	.loc	97 240 42               // kernel/include/linux/sbitmap.h:240:42
	ldr	x1, [x25, #8]!
	.loc	97 240 9 is_stmt 0      // kernel/include/linux/sbitmap.h:240:9
	mov	x0, x22
	mov	x2, xzr
	bl	find_next_bit
.Ltmp290:
	.loc	97 241 20 is_stmt 1     // kernel/include/linux/sbitmap.h:241:20
	ldr	x1, [x25]
.Ltmp291:
	.loc	97 240 9                // kernel/include/linux/sbitmap.h:240:9
	mov	x23, x0
.Ltmp292:
	//DEBUG_VALUE: nr <- undef
	.loc	97 241 8                // kernel/include/linux/sbitmap.h:241:8
	cmp	x1, w23, uxtw
	b.ls	.LBB2_31
.Ltmp293:
// %bb.27:                              //   in Loop: Header=BB2_25 Depth=1
	//DEBUG_VALUE: sbitmap_for_each_set:i <- $x24
	//DEBUG_VALUE: sbitmap_for_each_set:sb <- [DW_OP_plus_uconst 96, DW_OP_stack_value] $x20
	//DEBUG_VALUE: ufs_tagset_bt_tags_for_each:bt <- [DW_OP_plus_uconst 96, DW_OP_stack_value] $x20
	//DEBUG_VALUE: ufs_tagset_all_tag_busy_iter:fn <- $x21
	//DEBUG_VALUE: ufs_tagset_all_tag_busy_iter:tags <- $x20
	//DEBUG_VALUE: ufs_tagset_all_tag_busy_iter:priv <- $x19
	.loc	97 0 8 is_stmt 0        // kernel/include/linux/sbitmap.h:0:8
	lsl	w26, w24, w26
.Ltmp294:
	//DEBUG_VALUE: off <- $w26
.LBB2_28:                               //   Parent Loop BB2_25 Depth=1
                                        // =>  This Inner Loop Header: Depth=2
	//DEBUG_VALUE: off <- $w26
	//DEBUG_VALUE: sbitmap_for_each_set:i <- $x24
	//DEBUG_VALUE: sbitmap_for_each_set:sb <- [DW_OP_plus_uconst 96, DW_OP_stack_value] $x20
	//DEBUG_VALUE: ufs_tagset_bt_tags_for_each:bt <- [DW_OP_plus_uconst 96, DW_OP_stack_value] $x20
	//DEBUG_VALUE: ufs_tagset_all_tag_busy_iter:fn <- $x21
	//DEBUG_VALUE: ufs_tagset_all_tag_busy_iter:tags <- $x20
	//DEBUG_VALUE: ufs_tagset_all_tag_busy_iter:priv <- $x19
	//DEBUG_VALUE: nr <- undef
	//DEBUG_VALUE: ufs_tagset_bt_tags_iter:bitmap <- [DW_OP_plus_uconst 96, DW_OP_stack_value] $x20
	//DEBUG_VALUE: ufs_tagset_bt_tags_iter:bitnr <- undef
	//DEBUG_VALUE: ufs_tagset_bt_tags_iter:data <- undef
	//DEBUG_VALUE: ufs_tagset_bt_tags_iter:iter_data <- undef
	//DEBUG_VALUE: ufs_tagset_bt_tags_iter:tags <- $x20
	//DEBUG_VALUE: ufs_tagset_bt_tags_iter:rq <- undef
	.loc	130 112 6 is_stmt 1     // kernel/block/mas_blk_mq_tag.c:112:6
	cbz	x21, .LBB2_30
.Ltmp295:
// %bb.29:                              //   in Loop: Header=BB2_28 Depth=2
	//DEBUG_VALUE: ufs_tagset_bt_tags_iter:tags <- $x20
	//DEBUG_VALUE: ufs_tagset_bt_tags_iter:bitmap <- [DW_OP_plus_uconst 96, DW_OP_stack_value] $x20
	//DEBUG_VALUE: off <- $w26
	//DEBUG_VALUE: sbitmap_for_each_set:i <- $x24
	//DEBUG_VALUE: sbitmap_for_each_set:sb <- [DW_OP_plus_uconst 96, DW_OP_stack_value] $x20
	//DEBUG_VALUE: ufs_tagset_bt_tags_for_each:bt <- [DW_OP_plus_uconst 96, DW_OP_stack_value] $x20
	//DEBUG_VALUE: ufs_tagset_all_tag_busy_iter:fn <- $x21
	//DEBUG_VALUE: ufs_tagset_all_tag_busy_iter:tags <- $x20
	//DEBUG_VALUE: ufs_tagset_all_tag_busy_iter:priv <- $x19
	.loc	130 106 18              // kernel/block/mas_blk_mq_tag.c:106:18
	ldr	w8, [x20, #16]
.Ltmp296:
	//DEBUG_VALUE: nr <- [DW_OP_plus_uconst 1, DW_OP_stack_value] $w23
	//DEBUG_VALUE: nr <- $w23
	.loc	130 110 13              // kernel/block/mas_blk_mq_tag.c:110:13
	ldr	x9, [x20, #208]
.Ltmp297:
	.loc	97 244 20               // kernel/include/linux/sbitmap.h:244:20
	add	w10, w26, w23
.Ltmp298:
	//DEBUG_VALUE: ufs_tagset_bt_tags_iter:bitnr <- $w10
	.loc	130 113 3               // kernel/block/mas_blk_mq_tag.c:113:3
	orr	w2, wzr, #0x1
.Ltmp299:
	.loc	130 106 9               // kernel/block/mas_blk_mq_tag.c:106:9
	add	w8, w10, w8
.Ltmp300:
	//DEBUG_VALUE: ufs_tagset_bt_tags_iter:bitnr <- $w8
	.loc	130 110 7               // kernel/block/mas_blk_mq_tag.c:110:7
	ldr	x0, [x9, w8, uxtw #3]
.Ltmp301:
	//DEBUG_VALUE: ufs_tagset_bt_tags_iter:rq <- $x0
	.loc	130 113 3               // kernel/block/mas_blk_mq_tag.c:113:3
	mov	x1, x19
	blr	x21
.Ltmp302:
	.loc	97 240 42               // kernel/include/linux/sbitmap.h:240:42
	ldr	x1, [x25]
.Ltmp303:
.LBB2_30:                               //   in Loop: Header=BB2_28 Depth=2
	//DEBUG_VALUE: off <- $w26
	//DEBUG_VALUE: sbitmap_for_each_set:i <- $x24
	//DEBUG_VALUE: sbitmap_for_each_set:sb <- [DW_OP_plus_uconst 96, DW_OP_stack_value] $x20
	//DEBUG_VALUE: ufs_tagset_bt_tags_for_each:bt <- [DW_OP_plus_uconst 96, DW_OP_stack_value] $x20
	//DEBUG_VALUE: ufs_tagset_all_tag_busy_iter:fn <- $x21
	//DEBUG_VALUE: ufs_tagset_all_tag_busy_iter:tags <- $x20
	//DEBUG_VALUE: ufs_tagset_all_tag_busy_iter:priv <- $x19
	.loc	97 247 6                // kernel/include/linux/sbitmap.h:247:6
	add	w2, w23, #1             // =1
	.loc	97 240 9                // kernel/include/linux/sbitmap.h:240:9
	mov	x0, x22
	bl	find_next_bit
.Ltmp304:
	.loc	97 241 20               // kernel/include/linux/sbitmap.h:241:20
	ldr	x1, [x25]
.Ltmp305:
	.loc	97 240 9                // kernel/include/linux/sbitmap.h:240:9
	mov	x23, x0
.Ltmp306:
	//DEBUG_VALUE: nr <- undef
	.loc	97 241 8                // kernel/include/linux/sbitmap.h:241:8
	cmp	x1, w23, uxtw
	b.hi	.LBB2_28
.Ltmp307:
.LBB2_31:                               //   in Loop: Header=BB2_25 Depth=1
	//DEBUG_VALUE: sbitmap_for_each_set:i <- $x24
	//DEBUG_VALUE: sbitmap_for_each_set:sb <- [DW_OP_plus_uconst 96, DW_OP_stack_value] $x20
	//DEBUG_VALUE: ufs_tagset_bt_tags_for_each:bt <- [DW_OP_plus_uconst 96, DW_OP_stack_value] $x20
	//DEBUG_VALUE: ufs_tagset_all_tag_busy_iter:fn <- $x21
	//DEBUG_VALUE: ufs_tagset_all_tag_busy_iter:tags <- $x20
	//DEBUG_VALUE: ufs_tagset_all_tag_busy_iter:priv <- $x19
	.loc	97 230 22               // kernel/include/linux/sbitmap.h:230:22
	ldr	w8, [x20, #104]
	.loc	97 230 31 is_stmt 0     // kernel/include/linux/sbitmap.h:230:31
	add	x24, x24, #1            // =1
.Ltmp308:
	//DEBUG_VALUE: sbitmap_for_each_set:i <- [DW_OP_plus_uconst 1, DW_OP_stack_value] undef
	.loc	97 230 2                // kernel/include/linux/sbitmap.h:230:2
	cmp	x24, x8
	b.lo	.LBB2_25
.Ltmp309:
.LBB2_32:
	//DEBUG_VALUE: ufs_tagset_all_tag_busy_iter:fn <- $x21
	//DEBUG_VALUE: ufs_tagset_all_tag_busy_iter:tags <- $x20
	//DEBUG_VALUE: ufs_tagset_all_tag_busy_iter:priv <- $x19
	.loc	130 393 1 is_stmt 1     // kernel/block/mas_blk_mq_tag.c:393:1
	ldp	x29, x30, [sp, #64]     // 16-byte Folded Reload
	ldp	x20, x19, [sp, #48]     // 16-byte Folded Reload
.Ltmp310:
	ldp	x22, x21, [sp, #32]     // 16-byte Folded Reload
.Ltmp311:
	ldp	x24, x23, [sp, #16]     // 16-byte Folded Reload
	ldp	x26, x25, [sp], #80     // 16-byte Folded Reload
	ret
.Ltmp312:
.Lfunc_end2:
	.size	ufs_tagset_all_tag_busy_iter, .Lfunc_end2-ufs_tagset_all_tag_busy_iter
	.cfi_endproc
                                        // -- End function
	.section	.text.ufs_tagset_free_tags,"ax",@progbits
	.hidden	ufs_tagset_free_tags    // -- Begin function ufs_tagset_free_tags
	.globl	ufs_tagset_free_tags
	.p2align	2
	.type	ufs_tagset_free_tags,@function
ufs_tagset_free_tags:                   // @ufs_tagset_free_tags
.Lfunc_begin3:
	.loc	130 396 0               // kernel/block/mas_blk_mq_tag.c:396:0
	.cfi_startproc
// %bb.0:
	//DEBUG_VALUE: ufs_tagset_free_tags:tags <- $x0
	//DEBUG_VALUE: sbitmap_queue_free:sbq <- [DW_OP_plus_uconst 40, DW_OP_stack_value] $x0
	str	x19, [sp, #-32]!        // 8-byte Folded Spill
	stp	x29, x30, [sp, #16]     // 16-byte Folded Spill
	add	x29, sp, #16            // =16
	.cfi_def_cfa w29, 16
	.cfi_offset w30, -8
	.cfi_offset w29, -16
	.cfi_offset w19, -32
	mov	x19, x0
.Ltmp313:
	//DEBUG_VALUE: sbitmap_queue_free:sbq <- [DW_OP_plus_uconst 40, DW_OP_stack_value] $x19
	//DEBUG_VALUE: ufs_tagset_free_tags:tags <- $x19
	.loc	97 322 13 prologue_end  // kernel/include/linux/sbitmap.h:322:13
	ldr	x0, [x0, #80]
	.loc	97 322 2 is_stmt 0      // kernel/include/linux/sbitmap.h:322:2
	bl	kfree
	.loc	97 323 19 is_stmt 1     // kernel/include/linux/sbitmap.h:323:19
	ldr	x0, [x19, #64]
	.loc	97 323 2 is_stmt 0      // kernel/include/linux/sbitmap.h:323:2
	bl	free_percpu
.Ltmp314:
	//DEBUG_VALUE: sbitmap_free:sb <- [DW_OP_plus_uconst 40, DW_OP_stack_value] $x19
	.loc	97 152 12 is_stmt 1     // kernel/include/linux/sbitmap.h:152:12
	ldr	x0, [x19, #56]
	.loc	97 152 2 is_stmt 0      // kernel/include/linux/sbitmap.h:152:2
	bl	kfree
.Ltmp315:
	.loc	97 322 13 is_stmt 1     // kernel/include/linux/sbitmap.h:322:13
	ldr	x0, [x19, #136]
.Ltmp316:
	.loc	97 153 10               // kernel/include/linux/sbitmap.h:153:10
	str	xzr, [x19, #56]
.Ltmp317:
	//DEBUG_VALUE: sbitmap_queue_free:sbq <- [DW_OP_plus_uconst 96, DW_OP_stack_value] $x19
	//DEBUG_VALUE: sbitmap_free:sb <- [DW_OP_plus_uconst 40, DW_OP_stack_value] $x19
	//DEBUG_VALUE: sbitmap_queue_free:sbq <- [DW_OP_plus_uconst 40, DW_OP_stack_value] $x19
	.loc	97 322 2                // kernel/include/linux/sbitmap.h:322:2
	bl	kfree
	.loc	97 323 19               // kernel/include/linux/sbitmap.h:323:19
	ldr	x0, [x19, #120]
	.loc	97 323 2 is_stmt 0      // kernel/include/linux/sbitmap.h:323:2
	bl	free_percpu
.Ltmp318:
	//DEBUG_VALUE: sbitmap_free:sb <- [DW_OP_plus_uconst 96, DW_OP_stack_value] $x19
	.loc	97 152 12 is_stmt 1     // kernel/include/linux/sbitmap.h:152:12
	ldr	x0, [x19, #112]
	.loc	97 152 2 is_stmt 0      // kernel/include/linux/sbitmap.h:152:2
	bl	kfree
.Ltmp319:
	.loc	97 322 13 is_stmt 1     // kernel/include/linux/sbitmap.h:322:13
	ldr	x0, [x19, #192]
.Ltmp320:
	.loc	97 153 10               // kernel/include/linux/sbitmap.h:153:10
	str	xzr, [x19, #112]
.Ltmp321:
	//DEBUG_VALUE: sbitmap_queue_free:sbq <- [DW_OP_plus_uconst 152, DW_OP_stack_value] $x19
	//DEBUG_VALUE: sbitmap_free:sb <- [DW_OP_plus_uconst 96, DW_OP_stack_value] $x19
	//DEBUG_VALUE: sbitmap_queue_free:sbq <- [DW_OP_plus_uconst 96, DW_OP_stack_value] $x19
	.loc	97 322 2                // kernel/include/linux/sbitmap.h:322:2
	bl	kfree
	.loc	97 323 19               // kernel/include/linux/sbitmap.h:323:19
	ldr	x0, [x19, #176]
	.loc	97 323 2 is_stmt 0      // kernel/include/linux/sbitmap.h:323:2
	bl	free_percpu
.Ltmp322:
	//DEBUG_VALUE: sbitmap_free:sb <- [DW_OP_plus_uconst 152, DW_OP_stack_value] $x19
	.loc	97 152 12 is_stmt 1     // kernel/include/linux/sbitmap.h:152:12
	ldr	x0, [x19, #168]
	.loc	97 152 2 is_stmt 0      // kernel/include/linux/sbitmap.h:152:2
	bl	kfree
.Ltmp323:
	.loc	130 400 2 is_stmt 1     // kernel/block/mas_blk_mq_tag.c:400:2
	mov	x0, x19
.Ltmp324:
	.loc	97 153 10               // kernel/include/linux/sbitmap.h:153:10
	str	xzr, [x19, #168]
.Ltmp325:
	.loc	130 400 2               // kernel/block/mas_blk_mq_tag.c:400:2
	bl	kfree
	.loc	130 401 1               // kernel/block/mas_blk_mq_tag.c:401:1
	ldp	x29, x30, [sp, #16]     // 16-byte Folded Reload
	ldr	x19, [sp], #32          // 8-byte Folded Reload
.Ltmp326:
	ret
.Ltmp327:
.Lfunc_end3:
	.size	ufs_tagset_free_tags, .Lfunc_end3-ufs_tagset_free_tags
	.cfi_endproc
                                        // -- End function
	.section	.text.ufs_mq_tag_wakeup_all,"ax",@progbits
	.hidden	ufs_mq_tag_wakeup_all   // -- Begin function ufs_mq_tag_wakeup_all
	.globl	ufs_mq_tag_wakeup_all
	.p2align	2
	.type	ufs_mq_tag_wakeup_all,@function
ufs_mq_tag_wakeup_all:                  // @ufs_mq_tag_wakeup_all
.Lfunc_begin4:
	.loc	130 404 0               // kernel/block/mas_blk_mq_tag.c:404:0
	.cfi_startproc
// %bb.0:
	//DEBUG_VALUE: ufs_mq_tag_wakeup_all:tags <- $x0
	str	x19, [sp, #-32]!        // 8-byte Folded Spill
	stp	x29, x30, [sp, #16]     // 16-byte Folded Spill
	add	x29, sp, #16            // =16
	.cfi_def_cfa w29, 16
	.cfi_offset w30, -8
	.cfi_offset w29, -16
	.cfi_offset w19, -32
	mov	x19, x0
.Ltmp328:
	//DEBUG_VALUE: ufs_mq_tag_wakeup_all:tags <- $x19
	.loc	130 405 32 prologue_end // kernel/block/mas_blk_mq_tag.c:405:32
	add	x0, x0, #40             // =40
	.loc	130 405 2 is_stmt 0     // kernel/block/mas_blk_mq_tag.c:405:2
	bl	sbitmap_queue_wake_all
	.loc	130 406 32 is_stmt 1    // kernel/block/mas_blk_mq_tag.c:406:32
	add	x0, x19, #96            // =96
	.loc	130 406 2 is_stmt 0     // kernel/block/mas_blk_mq_tag.c:406:2
	bl	sbitmap_queue_wake_all
	.loc	130 407 32 is_stmt 1    // kernel/block/mas_blk_mq_tag.c:407:32
	add	x0, x19, #152           // =152
	.loc	130 407 2 is_stmt 0     // kernel/block/mas_blk_mq_tag.c:407:2
	bl	sbitmap_queue_wake_all
	.loc	130 408 2 is_stmt 1     // kernel/block/mas_blk_mq_tag.c:408:2
	ldp	x29, x30, [sp, #16]     // 16-byte Folded Reload
	mov	w0, wzr
	ldr	x19, [sp], #32          // 8-byte Folded Reload
.Ltmp329:
	ret
.Ltmp330:
.Lfunc_end4:
	.size	ufs_mq_tag_wakeup_all, .Lfunc_end4-ufs_mq_tag_wakeup_all
	.cfi_endproc
                                        // -- End function
	.section	.text.ufs_tagset_init_tags,"ax",@progbits
	.hidden	ufs_tagset_init_tags    // -- Begin function ufs_tagset_init_tags
	.globl	ufs_tagset_init_tags
	.p2align	2
	.type	ufs_tagset_init_tags,@function
ufs_tagset_init_tags:                   // @ufs_tagset_init_tags
.Lfunc_begin5:
	.loc	130 414 0               // kernel/block/mas_blk_mq_tag.c:414:0
	.cfi_startproc
// %bb.0:
	//DEBUG_VALUE: ufs_tagset_init_tags:total_tags <- $w0
	//DEBUG_VALUE: ufs_tagset_init_tags:reserved_tags <- $w1
	//DEBUG_VALUE: ufs_tagset_init_tags:high_prio_tags <- $w2
	//DEBUG_VALUE: ufs_tagset_init_tags:node <- $w3
	//DEBUG_VALUE: ufs_tagset_init_tags:alloc_policy <- $w4
	str	x25, [sp, #-80]!        // 8-byte Folded Spill
	stp	x24, x23, [sp, #16]     // 16-byte Folded Spill
	stp	x22, x21, [sp, #32]     // 16-byte Folded Spill
	stp	x20, x19, [sp, #48]     // 16-byte Folded Spill
	stp	x29, x30, [sp, #64]     // 16-byte Folded Spill
	add	x29, sp, #64            // =64
	.cfi_def_cfa w29, 16
	.cfi_offset w30, -8
	.cfi_offset w29, -16
	.cfi_offset w19, -24
	.cfi_offset w20, -32
	.cfi_offset w21, -40
	.cfi_offset w22, -48
	.cfi_offset w23, -56
	.cfi_offset w24, -64
	.cfi_offset w25, -80
.Ltmp331:
	.loc	20 580 5 prologue_end   // kernel/include/linux/slab.h:580:5
	adrp	x8, kmalloc_caches+64
	mov	w22, w0
.Ltmp332:
	//DEBUG_VALUE: ufs_tagset_init_tags:alloc_policy <- $w21
	//DEBUG_VALUE: ufs_tagset_init_tags:node <- $w20
	//DEBUG_VALUE: ufs_tagset_init_tags:high_prio_tags <- $w23
	//DEBUG_VALUE: ufs_tagset_init_tags:reserved_tags <- $w24
	//DEBUG_VALUE: ufs_tagset_init_tags:total_tags <- $w22
	ldr	x0, [x8, :lo12:kmalloc_caches+64]
.Ltmp333:
	//DEBUG_VALUE: kmem_cache_alloc_node_trace:node <- undef
	.loc	20 0 5 is_stmt 0        // kernel/include/linux/slab.h:0:5
	mov	w8, #192
	movk	w8, #320, lsl #16
.Ltmp334:
	//DEBUG_VALUE: i <- 8
	//DEBUG_VALUE: kmalloc_node:node <- undef
	//DEBUG_VALUE: kmalloc_node:flags <- 21004480
	//DEBUG_VALUE: kmalloc_node:size <- 240
	//DEBUG_VALUE: kzalloc_node:node <- undef
	//DEBUG_VALUE: kzalloc_node:flags <- 20971712
	//DEBUG_VALUE: kzalloc_node:size <- 240
	//DEBUG_VALUE: ufs_tagset_init_tags:tags <- 0
	//DEBUG_VALUE: kmem_cache_alloc_node_trace:size <- 240
	//DEBUG_VALUE: kmem_cache_alloc_node_trace:gfpflags <- 21004480
	//DEBUG_VALUE: kmem_cache_alloc_node_trace:s <- $x0
	mov	w23, w2
.Ltmp335:
	mov	w24, w1
.Ltmp336:
	.loc	20 428 9 is_stmt 1      // kernel/include/linux/slab.h:428:9
	add	w1, w8, #8, lsl #12     // =32768
	orr	w2, wzr, #0xf0
	mov	w21, w4
.Ltmp337:
	.loc	20 0 9 is_stmt 0        // kernel/include/linux/slab.h:0:9
	mov	w20, w3
.Ltmp338:
	.loc	20 428 9                // kernel/include/linux/slab.h:428:9
	bl	kmem_cache_alloc_trace
.Ltmp339:
	mov	x19, x0
.Ltmp340:
	//DEBUG_VALUE: ufs_tagset_init_bitmap_tags:tags <- $x19
	//DEBUG_VALUE: ufs_tagset_init_tags:tags <- $x19
	.loc	130 419 6 is_stmt 1     // kernel/block/mas_blk_mq_tag.c:419:6
	cbz	x0, .LBB5_7
.Ltmp341:
// %bb.1:
	//DEBUG_VALUE: ufs_tagset_init_tags:tags <- $x19
	//DEBUG_VALUE: ufs_tagset_init_bitmap_tags:tags <- $x19
	//DEBUG_VALUE: ufs_tagset_init_tags:total_tags <- $w22
	.loc	130 336 37              // kernel/block/mas_blk_mq_tag.c:336:37
	sub	w8, w22, w24
.Ltmp342:
	.loc	130 422 16              // kernel/block/mas_blk_mq_tag.c:422:16
	stp	w22, w24, [x19]
.Ltmp343:
	.loc	130 336 62              // kernel/block/mas_blk_mq_tag.c:336:62
	sub	w22, w8, w23
.Ltmp344:
	//DEBUG_VALUE: ufs_tagset_init_bitmap_tags:depth <- $w22
	.loc	130 340 2               // kernel/block/mas_blk_mq_tag.c:340:2
	adrp	x0, .L.str.1
	.loc	130 338 34              // kernel/block/mas_blk_mq_tag.c:338:34
	cmp	w21, #1                 // =1
	.loc	130 340 2               // kernel/block/mas_blk_mq_tag.c:340:2
	add	x0, x0, :lo12:.L.str.1
	mov	w1, w22
	mov	w2, w24
	mov	w3, w23
.Ltmp345:
	.loc	130 424 26              // kernel/block/mas_blk_mq_tag.c:424:26
	str	w23, [x19, #8]
.Ltmp346:
	//DEBUG_VALUE: ufs_tagset_init_bitmap_tags:alloc_policy <- $w21
	//DEBUG_VALUE: ufs_tagset_init_bitmap_tags:node <- $w20
	.loc	130 338 34              // kernel/block/mas_blk_mq_tag.c:338:34
	cset	w25, eq
	.loc	130 340 2               // kernel/block/mas_blk_mq_tag.c:340:2
	bl	printk
.Ltmp347:
	.loc	130 343 6               // kernel/block/mas_blk_mq_tag.c:343:6
	mov	w4, #192
	.loc	130 343 37 is_stmt 0    // kernel/block/mas_blk_mq_tag.c:343:37
	add	x0, x19, #40            // =40
.Ltmp348:
	//DEBUG_VALUE: sbitmap_queue_free:sbq <- $x0
	//DEBUG_VALUE: sbitmap_free:sb <- $x0
	.loc	130 343 6               // kernel/block/mas_blk_mq_tag.c:343:6
	mov	w2, #-1
	movk	w4, #320, lsl #16
	mov	w1, w22
	mov	w3, w25
	mov	w5, w20
	bl	sbitmap_queue_init_node
.Ltmp349:
	.loc	130 343 6               // kernel/block/mas_blk_mq_tag.c:343:6
	cbnz	w0, .LBB5_6
.Ltmp350:
// %bb.2:
	//DEBUG_VALUE: ufs_tagset_init_bitmap_tags:node <- $w20
	//DEBUG_VALUE: ufs_tagset_init_bitmap_tags:alloc_policy <- $w21
	//DEBUG_VALUE: ufs_tagset_init_bitmap_tags:depth <- $w22
	//DEBUG_VALUE: ufs_tagset_init_tags:tags <- $x19
	//DEBUG_VALUE: ufs_tagset_init_bitmap_tags:tags <- $x19
	.loc	130 348 13 is_stmt 1    // kernel/block/mas_blk_mq_tag.c:348:13
	ldr	w1, [x19, #4]
.Ltmp351:
	.loc	130 338 34              // kernel/block/mas_blk_mq_tag.c:338:34
	cmp	w21, #1                 // =1
.Ltmp352:
	.loc	130 347 6               // kernel/block/mas_blk_mq_tag.c:347:6
	mov	w4, #192
.Ltmp353:
	.loc	130 338 34              // kernel/block/mas_blk_mq_tag.c:338:34
	cset	w3, eq
.Ltmp354:
	.loc	130 347 37              // kernel/block/mas_blk_mq_tag.c:347:37
	add	x0, x19, #96            // =96
.Ltmp355:
	//DEBUG_VALUE: sbitmap_queue_free:sbq <- $x0
	//DEBUG_VALUE: sbitmap_free:sb <- $x0
	.loc	130 347 6 is_stmt 0     // kernel/block/mas_blk_mq_tag.c:347:6
	mov	w2, #-1
	movk	w4, #320, lsl #16
	mov	w5, w20
	bl	sbitmap_queue_init_node
.Ltmp356:
	.loc	130 347 6               // kernel/block/mas_blk_mq_tag.c:347:6
	cbnz	w0, .LBB5_5
.Ltmp357:
// %bb.3:
	//DEBUG_VALUE: ufs_tagset_init_bitmap_tags:node <- $w20
	//DEBUG_VALUE: ufs_tagset_init_bitmap_tags:alloc_policy <- $w21
	//DEBUG_VALUE: ufs_tagset_init_bitmap_tags:depth <- $w22
	//DEBUG_VALUE: ufs_tagset_init_tags:tags <- $x19
	//DEBUG_VALUE: ufs_tagset_init_bitmap_tags:tags <- $x19
	.loc	130 352 13 is_stmt 1    // kernel/block/mas_blk_mq_tag.c:352:13
	ldr	w1, [x19, #8]
.Ltmp358:
	.loc	130 338 34              // kernel/block/mas_blk_mq_tag.c:338:34
	cmp	w21, #1                 // =1
.Ltmp359:
	.loc	130 351 6               // kernel/block/mas_blk_mq_tag.c:351:6
	mov	w4, #192
.Ltmp360:
	.loc	130 338 34              // kernel/block/mas_blk_mq_tag.c:338:34
	cset	w3, eq
.Ltmp361:
	.loc	130 351 37              // kernel/block/mas_blk_mq_tag.c:351:37
	add	x0, x19, #152           // =152
	.loc	130 351 6 is_stmt 0     // kernel/block/mas_blk_mq_tag.c:351:6
	mov	w2, #-1
	movk	w4, #320, lsl #16
	mov	w5, w20
	bl	sbitmap_queue_init_node
.Ltmp362:
	.loc	130 351 6               // kernel/block/mas_blk_mq_tag.c:351:6
	cbz	w0, .LBB5_8
.Ltmp363:
// %bb.4:
	//DEBUG_VALUE: ufs_tagset_init_bitmap_tags:node <- $w20
	//DEBUG_VALUE: ufs_tagset_init_bitmap_tags:alloc_policy <- $w21
	//DEBUG_VALUE: ufs_tagset_init_bitmap_tags:depth <- $w22
	//DEBUG_VALUE: ufs_tagset_init_tags:tags <- $x19
	//DEBUG_VALUE: ufs_tagset_init_bitmap_tags:tags <- $x19
	//DEBUG_LABEL: ufs_tagset_init_bitmap_tags:enomem2
	.loc	97 322 13 is_stmt 1     // kernel/include/linux/sbitmap.h:322:13
	ldr	x0, [x19, #136]
	.loc	97 322 2 is_stmt 0      // kernel/include/linux/sbitmap.h:322:2
	bl	kfree
	.loc	97 323 19 is_stmt 1     // kernel/include/linux/sbitmap.h:323:19
	ldr	x0, [x19, #120]
	.loc	97 323 2 is_stmt 0      // kernel/include/linux/sbitmap.h:323:2
	bl	free_percpu
.Ltmp364:
	.loc	97 152 12 is_stmt 1     // kernel/include/linux/sbitmap.h:152:12
	ldr	x0, [x19, #112]
	.loc	97 152 2 is_stmt 0      // kernel/include/linux/sbitmap.h:152:2
	bl	kfree
	.loc	97 153 10 is_stmt 1     // kernel/include/linux/sbitmap.h:153:10
	str	xzr, [x19, #112]
.Ltmp365:
.LBB5_5:
	//DEBUG_VALUE: ufs_tagset_init_bitmap_tags:node <- $w20
	//DEBUG_VALUE: ufs_tagset_init_bitmap_tags:alloc_policy <- $w21
	//DEBUG_VALUE: ufs_tagset_init_bitmap_tags:depth <- $w22
	//DEBUG_VALUE: ufs_tagset_init_tags:tags <- $x19
	//DEBUG_VALUE: ufs_tagset_init_bitmap_tags:tags <- $x19
	//DEBUG_LABEL: ufs_tagset_init_bitmap_tags:enomem1
	.loc	97 322 13               // kernel/include/linux/sbitmap.h:322:13
	ldr	x0, [x19, #80]
	.loc	97 322 2 is_stmt 0      // kernel/include/linux/sbitmap.h:322:2
	bl	kfree
	.loc	97 323 19 is_stmt 1     // kernel/include/linux/sbitmap.h:323:19
	ldr	x0, [x19, #64]
	.loc	97 323 2 is_stmt 0      // kernel/include/linux/sbitmap.h:323:2
	bl	free_percpu
.Ltmp366:
	.loc	97 152 12 is_stmt 1     // kernel/include/linux/sbitmap.h:152:12
	ldr	x0, [x19, #56]
	.loc	97 152 2 is_stmt 0      // kernel/include/linux/sbitmap.h:152:2
	bl	kfree
	.loc	97 153 10 is_stmt 1     // kernel/include/linux/sbitmap.h:153:10
	str	xzr, [x19, #56]
.Ltmp367:
.LBB5_6:
	//DEBUG_VALUE: ufs_tagset_init_bitmap_tags:node <- $w20
	//DEBUG_VALUE: ufs_tagset_init_bitmap_tags:alloc_policy <- $w21
	//DEBUG_VALUE: ufs_tagset_init_bitmap_tags:depth <- $w22
	//DEBUG_VALUE: ufs_tagset_init_tags:tags <- $x19
	//DEBUG_VALUE: ufs_tagset_init_bitmap_tags:tags <- $x19
	//DEBUG_LABEL: ufs_tagset_init_bitmap_tags:enomem
	.loc	130 365 2               // kernel/block/mas_blk_mq_tag.c:365:2
	adrp	x0, .L.str.2
	adrp	x1, .L__func__.ufs_tagset_init_bitmap_tags
	add	x0, x0, :lo12:.L.str.2
	add	x1, x1, :lo12:.L__func__.ufs_tagset_init_bitmap_tags
	bl	printk
.Ltmp368:
	//DEBUG_VALUE: ufs_tagset_init_tags:ret <- -12
	.loc	130 428 3               // kernel/block/mas_blk_mq_tag.c:428:3
	adrp	x0, .L.str
	add	x0, x0, :lo12:.L.str
	bl	printk
	.loc	130 429 3               // kernel/block/mas_blk_mq_tag.c:429:3
	mov	x0, x19
	bl	kfree
.Ltmp369:
	.loc	130 0 0 is_stmt 0       // kernel/block/mas_blk_mq_tag.c:0:0
	mov	x19, xzr
.Ltmp370:
.LBB5_7:
	.loc	130 434 1 is_stmt 1     // kernel/block/mas_blk_mq_tag.c:434:1
	mov	x0, x19
	ldp	x29, x30, [sp, #64]     // 16-byte Folded Reload
	ldp	x20, x19, [sp, #48]     // 16-byte Folded Reload
	ldp	x22, x21, [sp, #32]     // 16-byte Folded Reload
	ldp	x24, x23, [sp, #16]     // 16-byte Folded Reload
	ldr	x25, [sp], #80          // 8-byte Folded Reload
	ret
.LBB5_8:
.Ltmp371:
	//DEBUG_VALUE: ufs_tagset_init_bitmap_tags:node <- $w20
	//DEBUG_VALUE: ufs_tagset_init_bitmap_tags:alloc_policy <- $w21
	//DEBUG_VALUE: ufs_tagset_init_bitmap_tags:depth <- $w22
	//DEBUG_VALUE: ufs_tagset_init_tags:tags <- $x19
	//DEBUG_VALUE: ufs_tagset_init_bitmap_tags:tags <- $x19
	.loc	130 357 41              // kernel/block/mas_blk_mq_tag.c:357:41
	ldr	w8, [x19, #4]
	.loc	130 355 23              // kernel/block/mas_blk_mq_tag.c:355:23
	stp	wzr, w22, [x19, #12]
	.loc	130 357 58              // kernel/block/mas_blk_mq_tag.c:357:58
	add	w8, w8, w22
	.loc	130 357 33 is_stmt 0    // kernel/block/mas_blk_mq_tag.c:357:33
	str	w8, [x19, #20]
	//DEBUG_VALUE: ufs_tagset_init_tags:ret <- -12
	b	.LBB5_7
.Ltmp372:
.Lfunc_end5:
	.size	ufs_tagset_init_tags, .Lfunc_end5-ufs_tagset_init_tags
	.cfi_endproc
                                        // -- End function
	.type	.L.str,@object          // @.str
	.section	.rodata.str1.1,"aMS",@progbits,1
.L.str:
	.asciz	"\0013[BLK-IO]Failed to init tagset bitmaps!\n"
	.size	.L.str, 42

	.type	.L.str.1,@object        // @.str.1
.L.str.1:
	.asciz	"\0013[BLK-IO]depth = %d, reserved = %d, high prio = %d \r\n"
	.size	.L.str.1, 55

	.type	.L.str.2,@object        // @.str.2
.L.str.2:
	.asciz	"\0013[BLK-IO]%s: error nomem\n"
	.size	.L.str.2, 27

	.type	.L__func__.ufs_tagset_init_bitmap_tags,@object // @__func__.ufs_tagset_init_bitmap_tags
.L__func__.ufs_tagset_init_bitmap_tags:
	.asciz	"ufs_tagset_init_bitmap_tags"
	.size	.L__func__.ufs_tagset_init_bitmap_tags, 28
