	.text
	.file	"mas_blk_iosched_ufs_mq.c"
	.file	1 "/mnt/disk/jenkins/ci/workspace/chipset_pipeline_release/opensource/component_code/vendor/huawei/extra/build/build_script/kirin_kernel_release/kernel/block/mas_blk_iosched_ufs_mq.c"
	.file	2 "/mnt/disk/jenkins/ci/workspace/chipset_pipeline_release/opensource/component_code/vendor/huawei/extra/build/build_script/kirin_kernel_release/kernel/include/linux/blkdev.h"
	.file	3 "/mnt/disk/jenkins/ci/workspace/chipset_pipeline_release/opensource/component_code/vendor/huawei/extra/build/build_script/kirin_kernel_release/kernel/include/linux/types.h"
	.file	4 "/mnt/disk/jenkins/ci/workspace/chipset_pipeline_release/opensource/component_code/vendor/huawei/extra/build/build_script/kirin_kernel_release/kernel/include/linux/llist.h"
	.file	5 "/mnt/disk/jenkins/ci/workspace/chipset_pipeline_release/opensource/component_code/vendor/huawei/extra/build/build_script/kirin_kernel_release/kernel/include/linux/smp.h"
	.file	6 "/mnt/disk/jenkins/ci/workspace/chipset_pipeline_release/opensource/component_code/vendor/huawei/extra/build/build_script/kirin_kernel_release/kernel/include/asm-generic/int-ll64.h"
	.file	7 "/mnt/disk/jenkins/ci/workspace/chipset_pipeline_release/opensource/component_code/vendor/huawei/extra/build/build_script/kirin_kernel_release/kernel/arch/arm64/include/asm/spinlock_types.h"
	.file	8 "/mnt/disk/jenkins/ci/workspace/chipset_pipeline_release/opensource/component_code/vendor/huawei/extra/build/build_script/kirin_kernel_release/kernel/include/linux/spinlock_types.h"
	.file	9 "/mnt/disk/jenkins/ci/workspace/chipset_pipeline_release/opensource/component_code/vendor/huawei/extra/build/build_script/kirin_kernel_release/kernel/block/blk-mq.h"
	.file	10 "/mnt/disk/jenkins/ci/workspace/chipset_pipeline_release/opensource/component_code/vendor/huawei/extra/build/build_script/kirin_kernel_release/kernel/include/linux/kobject.h"
	.file	11 "/mnt/disk/jenkins/ci/workspace/chipset_pipeline_release/opensource/component_code/vendor/huawei/extra/build/build_script/kirin_kernel_release/kernel/include/uapi/asm-generic/posix_types.h"
	.file	12 "/mnt/disk/jenkins/ci/workspace/chipset_pipeline_release/opensource/component_code/vendor/huawei/extra/build/build_script/kirin_kernel_release/kernel/include/linux/sysfs.h"
	.file	13 "/mnt/disk/jenkins/ci/workspace/chipset_pipeline_release/opensource/component_code/vendor/huawei/extra/build/build_script/kirin_kernel_release/kernel/include/linux/kobject_ns.h"
	.file	14 "/mnt/disk/jenkins/ci/workspace/chipset_pipeline_release/opensource/component_code/vendor/huawei/extra/build/build_script/kirin_kernel_release/kernel/include/linux/kernfs.h"
	.file	15 "/mnt/disk/jenkins/ci/workspace/chipset_pipeline_release/opensource/component_code/vendor/huawei/extra/build/build_script/kirin_kernel_release/kernel/include/linux/rbtree.h"
	.file	16 "/mnt/disk/jenkins/ci/workspace/chipset_pipeline_release/opensource/component_code/vendor/huawei/extra/build/build_script/kirin_kernel_release/kernel/include/linux/radix-tree.h"
	.file	17 "/mnt/disk/jenkins/ci/workspace/chipset_pipeline_release/opensource/component_code/vendor/huawei/extra/build/build_script/kirin_kernel_release/kernel/include/linux/idr.h"
	.file	18 "/mnt/disk/jenkins/ci/workspace/chipset_pipeline_release/opensource/component_code/vendor/huawei/extra/build/build_script/kirin_kernel_release/kernel/include/linux/seq_file.h"
	.file	19 "/mnt/disk/jenkins/ci/workspace/chipset_pipeline_release/opensource/component_code/vendor/huawei/extra/build/build_script/kirin_kernel_release/kernel/include/asm-generic/atomic-long.h"
	.file	20 "/mnt/disk/jenkins/ci/workspace/chipset_pipeline_release/opensource/component_code/vendor/huawei/extra/build/build_script/kirin_kernel_release/kernel/include/linux/mutex.h"
	.file	21 "/mnt/disk/jenkins/ci/workspace/chipset_pipeline_release/opensource/component_code/vendor/huawei/extra/build/build_script/kirin_kernel_release/kernel/include/linux/osq_lock.h"
	.file	22 "/mnt/disk/jenkins/ci/workspace/chipset_pipeline_release/opensource/component_code/vendor/huawei/extra/build/build_script/kirin_kernel_release/kernel/include/linux/fs.h"
	.file	23 "/mnt/disk/jenkins/ci/workspace/chipset_pipeline_release/opensource/component_code/vendor/huawei/extra/build/build_script/kirin_kernel_release/kernel/include/linux/path.h"
	.file	24 "/mnt/disk/jenkins/ci/workspace/chipset_pipeline_release/opensource/component_code/vendor/huawei/extra/build/build_script/kirin_kernel_release/kernel/include/linux/dcache.h"
	.file	25 "/mnt/disk/jenkins/ci/workspace/chipset_pipeline_release/opensource/component_code/vendor/huawei/extra/build/build_script/kirin_kernel_release/kernel/include/linux/seqlock.h"
	.file	26 "/mnt/disk/jenkins/ci/workspace/chipset_pipeline_release/opensource/component_code/vendor/huawei/extra/build/build_script/kirin_kernel_release/kernel/include/linux/list_bl.h"
	.file	27 "/mnt/disk/jenkins/ci/workspace/chipset_pipeline_release/opensource/component_code/vendor/huawei/extra/build/build_script/kirin_kernel_release/kernel/include/linux/uidgid.h"
	.file	28 "/mnt/disk/jenkins/ci/workspace/chipset_pipeline_release/opensource/component_code/vendor/huawei/extra/build/build_script/kirin_kernel_release/kernel/include/linux/delayed_call.h"
	.file	29 "/mnt/disk/jenkins/ci/workspace/chipset_pipeline_release/opensource/component_code/vendor/huawei/extra/build/build_script/kirin_kernel_release/kernel/include/uapi/asm-generic/int-ll64.h"
	.file	30 "/mnt/disk/jenkins/ci/workspace/chipset_pipeline_release/opensource/component_code/vendor/huawei/extra/build/build_script/kirin_kernel_release/kernel/include/uapi/linux/time.h"
	.file	31 "/mnt/disk/jenkins/ci/workspace/chipset_pipeline_release/opensource/component_code/vendor/huawei/extra/build/build_script/kirin_kernel_release/kernel/include/linux/stat.h"
	.file	32 "/mnt/disk/jenkins/ci/workspace/chipset_pipeline_release/opensource/component_code/vendor/huawei/extra/build/build_script/kirin_kernel_release/kernel/include/uapi/linux/fiemap.h"
	.file	33 "/mnt/disk/jenkins/ci/workspace/chipset_pipeline_release/opensource/component_code/vendor/huawei/extra/build/build_script/kirin_kernel_release/kernel/include/linux/module.h"
	.file	34 "/mnt/disk/jenkins/ci/workspace/chipset_pipeline_release/opensource/component_code/vendor/huawei/extra/build/build_script/kirin_kernel_release/kernel/include/linux/completion.h"
	.file	35 "/mnt/disk/jenkins/ci/workspace/chipset_pipeline_release/opensource/component_code/vendor/huawei/extra/build/build_script/kirin_kernel_release/kernel/include/linux/wait.h"
	.file	36 "/mnt/disk/jenkins/ci/workspace/chipset_pipeline_release/opensource/component_code/vendor/huawei/extra/build/build_script/kirin_kernel_release/kernel/include/linux/export.h"
	.file	37 "/mnt/disk/jenkins/ci/workspace/chipset_pipeline_release/opensource/component_code/vendor/huawei/extra/build/build_script/kirin_kernel_release/kernel/include/linux/cfi.h"
	.file	38 "/mnt/disk/jenkins/ci/workspace/chipset_pipeline_release/opensource/component_code/vendor/huawei/extra/build/build_script/kirin_kernel_release/kernel/include/linux/moduleparam.h"
	.file	39 "/mnt/disk/jenkins/ci/workspace/chipset_pipeline_release/opensource/component_code/vendor/huawei/extra/build/build_script/kirin_kernel_release/kernel/arch/arm64/include/asm/extable.h"
	.file	40 "/mnt/disk/jenkins/ci/workspace/chipset_pipeline_release/opensource/component_code/vendor/huawei/extra/build/build_script/kirin_kernel_release/kernel/include/linux/rbtree_latch.h"
	.file	41 "/mnt/disk/jenkins/ci/workspace/chipset_pipeline_release/opensource/component_code/vendor/huawei/extra/build/build_script/kirin_kernel_release/kernel/include/uapi/linux/elf.h"
	.file	42 "/mnt/disk/jenkins/ci/workspace/chipset_pipeline_release/opensource/component_code/vendor/huawei/extra/build/build_script/kirin_kernel_release/kernel/arch/arm64/include/asm/module.h"
	.file	43 "/mnt/disk/jenkins/ci/workspace/chipset_pipeline_release/opensource/component_code/vendor/huawei/extra/build/build_script/kirin_kernel_release/kernel/include/uapi/linux/types.h"
	.file	44 "/mnt/disk/jenkins/ci/workspace/chipset_pipeline_release/opensource/component_code/vendor/huawei/extra/build/build_script/kirin_kernel_release/kernel/include/asm-generic/bug.h"
	.file	45 "/mnt/disk/jenkins/ci/workspace/chipset_pipeline_release/opensource/component_code/vendor/huawei/extra/build/build_script/kirin_kernel_release/kernel/include/linux/tracepoint-defs.h"
	.file	46 "/mnt/disk/jenkins/ci/workspace/chipset_pipeline_release/opensource/component_code/vendor/huawei/extra/build/build_script/kirin_kernel_release/kernel/include/linux/jump_label.h"
	.file	47 "/mnt/disk/jenkins/ci/workspace/chipset_pipeline_release/opensource/component_code/vendor/huawei/extra/build/build_script/kirin_kernel_release/kernel/include/linux/tracepoint.h"
	.file	48 "/mnt/disk/jenkins/ci/workspace/chipset_pipeline_release/opensource/component_code/vendor/huawei/extra/build/build_script/kirin_kernel_release/kernel/include/linux/lockdep.h"
	.file	49 "/mnt/disk/jenkins/ci/workspace/chipset_pipeline_release/opensource/component_code/vendor/huawei/extra/build/build_script/kirin_kernel_release/kernel/include/linux/writeback.h"
	.file	50 "/mnt/disk/jenkins/ci/workspace/chipset_pipeline_release/opensource/component_code/vendor/huawei/extra/build/build_script/kirin_kernel_release/kernel/include/linux/backing-dev-defs.h"
	.file	51 "/mnt/disk/jenkins/ci/workspace/chipset_pipeline_release/opensource/component_code/vendor/huawei/extra/build/build_script/kirin_kernel_release/kernel/include/linux/refcount.h"
	.file	52 "/mnt/disk/jenkins/ci/workspace/chipset_pipeline_release/opensource/component_code/vendor/huawei/extra/build/build_script/kirin_kernel_release/kernel/include/linux/kref.h"
	.file	53 "/mnt/disk/jenkins/ci/workspace/chipset_pipeline_release/opensource/component_code/vendor/huawei/extra/build/build_script/kirin_kernel_release/kernel/include/linux/rwsem.h"
	.file	54 "/mnt/disk/jenkins/ci/workspace/chipset_pipeline_release/opensource/component_code/vendor/huawei/extra/build/build_script/kirin_kernel_release/kernel/arch/arm64/include/asm/thread_info.h"
	.file	55 "/mnt/disk/jenkins/ci/workspace/chipset_pipeline_release/opensource/component_code/vendor/huawei/extra/build/build_script/kirin_kernel_release/kernel/include/linux/sched.h"
	.file	56 "/mnt/disk/jenkins/ci/workspace/chipset_pipeline_release/opensource/component_code/vendor/huawei/extra/build/build_script/kirin_kernel_release/kernel/include/linux/cpumask.h"
	.file	57 "/mnt/disk/jenkins/ci/workspace/chipset_pipeline_release/opensource/component_code/vendor/huawei/extra/build/build_script/kirin_kernel_release/kernel/include/linux/timerqueue.h"
	.file	58 "/mnt/disk/jenkins/ci/workspace/chipset_pipeline_release/opensource/component_code/vendor/huawei/extra/build/build_script/kirin_kernel_release/kernel/include/linux/ktime.h"
	.file	59 "/mnt/disk/jenkins/ci/workspace/chipset_pipeline_release/opensource/component_code/vendor/huawei/extra/build/build_script/kirin_kernel_release/kernel/include/linux/hrtimer.h"
	.file	60 "/mnt/disk/jenkins/ci/workspace/chipset_pipeline_release/opensource/component_code/vendor/huawei/extra/build/build_script/kirin_kernel_release/kernel/include/linux/plist.h"
	.file	61 "/mnt/disk/jenkins/ci/workspace/chipset_pipeline_release/opensource/component_code/vendor/huawei/extra/build/build_script/kirin_kernel_release/kernel/include/linux/mm_types.h"
	.file	62 "/mnt/disk/jenkins/ci/workspace/chipset_pipeline_release/opensource/component_code/vendor/huawei/extra/build/build_script/kirin_kernel_release/kernel/arch/arm64/include/asm/pgtable-types.h"
	.file	63 "/mnt/disk/jenkins/ci/workspace/chipset_pipeline_release/opensource/component_code/vendor/huawei/extra/build/build_script/kirin_kernel_release/kernel/include/linux/mm.h"
	.file	64 "/mnt/disk/jenkins/ci/workspace/chipset_pipeline_release/opensource/component_code/vendor/huawei/extra/build/build_script/kirin_kernel_release/kernel/include/asm-generic/pgtable-nop4d-hack.h"
	.file	65 "/mnt/disk/jenkins/ci/workspace/chipset_pipeline_release/opensource/component_code/vendor/huawei/extra/build/build_script/kirin_kernel_release/kernel/include/linux/uio.h"
	.file	66 "/mnt/disk/jenkins/ci/workspace/chipset_pipeline_release/opensource/component_code/vendor/huawei/extra/build/build_script/kirin_kernel_release/kernel/include/uapi/linux/uio.h"
	.file	67 "/mnt/disk/jenkins/ci/workspace/chipset_pipeline_release/opensource/component_code/vendor/huawei/extra/build/build_script/kirin_kernel_release/kernel/include/linux/bvec.h"
	.file	68 "/mnt/disk/jenkins/ci/workspace/chipset_pipeline_release/opensource/component_code/vendor/huawei/extra/build/build_script/kirin_kernel_release/kernel/include/linux/migrate_mode.h"
	.file	69 "/mnt/disk/jenkins/ci/workspace/chipset_pipeline_release/opensource/component_code/vendor/huawei/extra/build/build_script/kirin_kernel_release/kernel/include/linux/mmzone.h"
	.file	70 "/mnt/disk/jenkins/ci/workspace/chipset_pipeline_release/opensource/component_code/vendor/huawei/extra/build/build_script/kirin_kernel_release/kernel/include/linux/swap.h"
	.file	71 "/mnt/disk/jenkins/ci/workspace/chipset_pipeline_release/opensource/component_code/vendor/huawei/extra/build/build_script/kirin_kernel_release/kernel/include/linux/genhd.h"
	.file	72 "/mnt/disk/jenkins/ci/workspace/chipset_pipeline_release/opensource/component_code/vendor/huawei/extra/build/build_script/kirin_kernel_release/kernel/include/linux/device.h"
	.file	73 "/mnt/disk/jenkins/ci/workspace/chipset_pipeline_release/opensource/component_code/vendor/huawei/extra/build/build_script/kirin_kernel_release/kernel/include/linux/pm.h"
	.file	74 "/mnt/disk/jenkins/ci/workspace/chipset_pipeline_release/opensource/component_code/vendor/huawei/extra/build/build_script/kirin_kernel_release/kernel/include/linux/pm_wakeup.h"
	.file	75 "/mnt/disk/jenkins/ci/workspace/chipset_pipeline_release/opensource/component_code/vendor/huawei/extra/build/build_script/kirin_kernel_release/kernel/include/linux/timer.h"
	.file	76 "/mnt/disk/jenkins/ci/workspace/chipset_pipeline_release/opensource/component_code/vendor/huawei/extra/build/build_script/kirin_kernel_release/kernel/include/linux/workqueue.h"
	.file	77 "/mnt/disk/jenkins/ci/workspace/chipset_pipeline_release/opensource/component_code/vendor/huawei/extra/build/build_script/kirin_kernel_release/kernel/include/linux/pinctrl/devinfo.h"
	.file	78 "/mnt/disk/jenkins/ci/workspace/chipset_pipeline_release/opensource/component_code/vendor/huawei/extra/build/build_script/kirin_kernel_release/kernel/arch/arm64/include/asm/device.h"
	.file	79 "/mnt/disk/jenkins/ci/workspace/chipset_pipeline_release/opensource/component_code/vendor/huawei/extra/build/build_script/kirin_kernel_release/kernel/include/linux/klist.h"
	.file	80 "/mnt/disk/jenkins/ci/workspace/chipset_pipeline_release/opensource/component_code/vendor/huawei/extra/build/build_script/kirin_kernel_release/kernel/include/linux/percpu-refcount.h"
	.file	81 "/mnt/disk/jenkins/ci/workspace/chipset_pipeline_release/opensource/component_code/vendor/huawei/extra/build/build_script/kirin_kernel_release/kernel/include/linux/errseq.h"
	.file	82 "/mnt/disk/jenkins/ci/workspace/chipset_pipeline_release/opensource/component_code/vendor/huawei/extra/build/build_script/kirin_kernel_release/kernel/include/linux/memremap.h"
	.file	83 "/mnt/disk/jenkins/ci/workspace/chipset_pipeline_release/opensource/component_code/vendor/huawei/extra/build/build_script/kirin_kernel_release/kernel/include/linux/ioport.h"
	.file	84 "/mnt/disk/jenkins/ci/workspace/chipset_pipeline_release/opensource/component_code/vendor/huawei/extra/build/build_script/kirin_kernel_release/kernel/include/linux/cgroup-defs.h"
	.file	85 "/mnt/disk/jenkins/ci/workspace/chipset_pipeline_release/opensource/component_code/vendor/huawei/extra/build/build_script/kirin_kernel_release/kernel/include/linux/psi_types.h"
	.file	86 "/mnt/disk/jenkins/ci/workspace/chipset_pipeline_release/opensource/component_code/vendor/huawei/extra/build/build_script/kirin_kernel_release/kernel/include/linux/bpf-cgroup.h"
	.file	87 "/mnt/disk/jenkins/ci/workspace/chipset_pipeline_release/opensource/component_code/vendor/huawei/extra/build/build_script/kirin_kernel_release/kernel/include/linux/poll.h"
	.file	88 "/mnt/disk/jenkins/ci/workspace/chipset_pipeline_release/opensource/component_code/vendor/huawei/extra/build/build_script/kirin_kernel_release/kernel/include/linux/memcontrol.h"
	.file	89 "/mnt/disk/jenkins/ci/workspace/chipset_pipeline_release/opensource/component_code/vendor/huawei/extra/build/build_script/kirin_kernel_release/kernel/include/linux/page_counter.h"
	.file	90 "/mnt/disk/jenkins/ci/workspace/chipset_pipeline_release/opensource/component_code/vendor/huawei/extra/build/build_script/kirin_kernel_release/kernel/include/linux/vmpressure.h"
	.file	91 "/mnt/disk/jenkins/ci/workspace/chipset_pipeline_release/opensource/component_code/vendor/huawei/extra/build/build_script/kirin_kernel_release/kernel/include/linux/percpu_counter.h"
	.file	92 "/mnt/disk/jenkins/ci/workspace/chipset_pipeline_release/opensource/component_code/vendor/huawei/extra/build/build_script/kirin_kernel_release/kernel/include/linux/flex_proportions.h"
	.file	93 "/mnt/disk/jenkins/ci/workspace/chipset_pipeline_release/opensource/component_code/vendor/huawei/extra/build/build_script/kirin_kernel_release/kernel/arch/arm64/include/asm/page.h"
	.file	94 "/mnt/disk/jenkins/ci/workspace/chipset_pipeline_release/opensource/component_code/vendor/huawei/extra/build/build_script/kirin_kernel_release/kernel/include/linux/mm_types_task.h"
	.file	95 "/mnt/disk/jenkins/ci/workspace/chipset_pipeline_release/opensource/component_code/vendor/huawei/extra/build/build_script/kirin_kernel_release/kernel/arch/arm64/include/asm/mmu.h"
	.file	96 "/mnt/disk/jenkins/ci/workspace/chipset_pipeline_release/opensource/component_code/vendor/huawei/extra/build/build_script/kirin_kernel_release/kernel/include/linux/user_namespace.h"
	.file	97 "/mnt/disk/jenkins/ci/workspace/chipset_pipeline_release/opensource/component_code/vendor/huawei/extra/build/build_script/kirin_kernel_release/kernel/include/linux/ns_common.h"
	.file	98 "/mnt/disk/jenkins/ci/workspace/chipset_pipeline_release/opensource/component_code/vendor/huawei/extra/build/build_script/kirin_kernel_release/kernel/include/linux/sysctl.h"
	.file	99 "/mnt/disk/jenkins/ci/workspace/chipset_pipeline_release/opensource/component_code/vendor/huawei/extra/build/build_script/kirin_kernel_release/kernel/include/linux/uprobes.h"
	.file	100 "/mnt/disk/jenkins/ci/workspace/chipset_pipeline_release/opensource/component_code/vendor/huawei/extra/build/build_script/kirin_kernel_release/kernel/include/linux/xreclaimer_types.h"
	.file	101 "/mnt/disk/jenkins/ci/workspace/chipset_pipeline_release/opensource/component_code/vendor/huawei/extra/build/build_script/kirin_kernel_release/kernel/include/linux/rwlock_types.h"
	.file	102 "/mnt/disk/jenkins/ci/workspace/chipset_pipeline_release/opensource/component_code/vendor/huawei/extra/build/build_script/kirin_kernel_release/kernel/include/linux/restart_block.h"
	.file	103 "/mnt/disk/jenkins/ci/workspace/chipset_pipeline_release/opensource/component_code/vendor/huawei/extra/build/build_script/kirin_kernel_release/kernel/arch/arm64/include/asm/compat.h"
	.file	104 "/mnt/disk/jenkins/ci/workspace/chipset_pipeline_release/opensource/component_code/vendor/huawei/extra/build/build_script/kirin_kernel_release/kernel/include/uapi/asm-generic/poll.h"
	.file	105 "/mnt/disk/jenkins/ci/workspace/chipset_pipeline_release/opensource/component_code/vendor/huawei/extra/build/build_script/kirin_kernel_release/kernel/include/linux/pid.h"
	.file	106 "/mnt/disk/jenkins/ci/workspace/chipset_pipeline_release/opensource/component_code/vendor/huawei/extra/build/build_script/kirin_kernel_release/kernel/include/linux/cred.h"
	.file	107 "/mnt/disk/jenkins/ci/workspace/chipset_pipeline_release/opensource/component_code/vendor/huawei/extra/build/build_script/kirin_kernel_release/kernel/include/linux/capability.h"
	.file	108 "/mnt/disk/jenkins/ci/workspace/chipset_pipeline_release/opensource/component_code/vendor/huawei/extra/build/build_script/kirin_kernel_release/kernel/include/linux/key.h"
	.file	109 "/mnt/disk/jenkins/ci/workspace/chipset_pipeline_release/opensource/component_code/vendor/huawei/extra/build/build_script/kirin_kernel_release/kernel/include/linux/assoc_array.h"
	.file	110 "/mnt/disk/jenkins/ci/workspace/chipset_pipeline_release/opensource/component_code/vendor/huawei/extra/build/build_script/kirin_kernel_release/kernel/include/linux/sched/user.h"
	.file	111 "/mnt/disk/jenkins/ci/workspace/chipset_pipeline_release/opensource/component_code/vendor/huawei/extra/build/build_script/kirin_kernel_release/kernel/include/linux/nsproxy.h"
	.file	112 "/mnt/disk/jenkins/ci/workspace/chipset_pipeline_release/opensource/component_code/vendor/huawei/extra/build/build_script/kirin_kernel_release/kernel/include/linux/cgroup.h"
	.file	113 "/mnt/disk/jenkins/ci/workspace/chipset_pipeline_release/opensource/component_code/vendor/huawei/extra/build/build_script/kirin_kernel_release/kernel/include/uapi/asm-generic/signal.h"
	.file	114 "/mnt/disk/jenkins/ci/workspace/chipset_pipeline_release/opensource/component_code/vendor/huawei/extra/build/build_script/kirin_kernel_release/kernel/include/linux/signal_types.h"
	.file	115 "/mnt/disk/jenkins/ci/workspace/chipset_pipeline_release/opensource/component_code/vendor/huawei/extra/build/build_script/kirin_kernel_release/kernel/include/linux/seccomp.h"
	.file	116 "/mnt/disk/jenkins/ci/workspace/chipset_pipeline_release/opensource/component_code/vendor/huawei/extra/build/build_script/kirin_kernel_release/kernel/include/linux/blk_types.h"
	.file	117 "/mnt/disk/jenkins/ci/workspace/chipset_pipeline_release/opensource/component_code/vendor/huawei/extra/build/build_script/kirin_kernel_release/kernel/include/linux/iocontext.h"
	.file	118 "/mnt/disk/jenkins/ci/workspace/chipset_pipeline_release/opensource/component_code/vendor/huawei/extra/build/build_script/kirin_kernel_release/kernel/include/linux/bio.h"
	.file	119 "/mnt/disk/jenkins/ci/workspace/chipset_pipeline_release/opensource/component_code/vendor/huawei/extra/build/build_script/kirin_kernel_release/kernel/include/linux/mempool.h"
	.file	120 "/mnt/disk/jenkins/ci/workspace/chipset_pipeline_release/opensource/component_code/vendor/huawei/extra/build/build_script/kirin_kernel_release/kernel/include/uapi/asm-generic/siginfo.h"
	.file	121 "/mnt/disk/jenkins/ci/workspace/chipset_pipeline_release/opensource/component_code/vendor/huawei/extra/build/build_script/kirin_kernel_release/kernel/include/linux/task_io_accounting.h"
	.file	122 "/mnt/disk/jenkins/ci/workspace/chipset_pipeline_release/opensource/component_code/vendor/huawei/extra/build/build_script/kirin_kernel_release/kernel/include/linux/nodemask.h"
	.file	123 "/mnt/disk/jenkins/ci/workspace/chipset_pipeline_release/opensource/component_code/vendor/huawei/extra/build/build_script/kirin_kernel_release/kernel/include/linux/compat.h"
	.file	124 "/mnt/disk/jenkins/ci/workspace/chipset_pipeline_release/opensource/component_code/vendor/huawei/extra/build/build_script/kirin_kernel_release/kernel/arch/arm64/include/asm/processor.h"
	.file	125 "/mnt/disk/jenkins/ci/workspace/chipset_pipeline_release/opensource/component_code/vendor/huawei/extra/build/build_script/kirin_kernel_release/kernel/arch/arm64/include/uapi/asm/ptrace.h"
	.file	126 "/mnt/disk/jenkins/ci/workspace/chipset_pipeline_release/opensource/component_code/vendor/huawei/extra/build/build_script/kirin_kernel_release/kernel/arch/arm64/include/asm/fpsimd.h"
	.file	127 "/mnt/disk/jenkins/ci/workspace/chipset_pipeline_release/opensource/component_code/vendor/huawei/extra/build/build_script/kirin_kernel_release/kernel/include/linux/quota.h"
	.file	128 "/mnt/disk/jenkins/ci/workspace/chipset_pipeline_release/opensource/component_code/vendor/huawei/extra/build/build_script/kirin_kernel_release/kernel/include/linux/projid.h"
	.file	129 "/mnt/disk/jenkins/ci/workspace/chipset_pipeline_release/opensource/component_code/vendor/huawei/extra/build/build_script/kirin_kernel_release/kernel/include/linux/time64.h"
	.file	130 "/mnt/disk/jenkins/ci/workspace/chipset_pipeline_release/opensource/component_code/vendor/huawei/extra/build/build_script/kirin_kernel_release/kernel/include/linux/shrinker.h"
	.file	131 "/mnt/disk/jenkins/ci/workspace/chipset_pipeline_release/opensource/component_code/vendor/huawei/extra/build/build_script/kirin_kernel_release/kernel/include/linux/rcu_sync.h"
	.file	132 "/mnt/disk/jenkins/ci/workspace/chipset_pipeline_release/opensource/component_code/vendor/huawei/extra/build/build_script/kirin_kernel_release/kernel/include/linux/percpu-rwsem.h"
	.file	133 "/mnt/disk/jenkins/ci/workspace/chipset_pipeline_release/opensource/component_code/vendor/huawei/extra/build/build_script/kirin_kernel_release/kernel/include/linux/rcuwait.h"
	.file	134 "/mnt/disk/jenkins/ci/workspace/chipset_pipeline_release/opensource/component_code/vendor/huawei/extra/build/build_script/kirin_kernel_release/kernel/include/linux/uuid.h"
	.file	135 "/mnt/disk/jenkins/ci/workspace/chipset_pipeline_release/opensource/component_code/vendor/huawei/extra/build/build_script/kirin_kernel_release/kernel/include/linux/list_lru.h"
	.file	136 "/mnt/disk/jenkins/ci/workspace/chipset_pipeline_release/opensource/component_code/vendor/huawei/extra/build/build_script/kirin_kernel_release/kernel/include/linux/nfs_fs_i.h"
	.file	137 "/mnt/disk/jenkins/ci/workspace/chipset_pipeline_release/opensource/component_code/vendor/huawei/extra/build/build_script/kirin_kernel_release/kernel/include/linux/lockref.h"
	.file	138 "/mnt/disk/jenkins/ci/workspace/chipset_pipeline_release/opensource/component_code/vendor/huawei/extra/build/build_script/kirin_kernel_release/kernel/include/linux/elevator.h"
	.file	139 "/mnt/disk/jenkins/ci/workspace/chipset_pipeline_release/opensource/component_code/vendor/huawei/extra/build/build_script/kirin_kernel_release/kernel/include/linux/blk-mq.h"
	.file	140 "/mnt/disk/jenkins/ci/workspace/chipset_pipeline_release/opensource/component_code/vendor/huawei/extra/build/build_script/kirin_kernel_release/kernel/block/blk.h"
	.file	141 "/mnt/disk/jenkins/ci/workspace/chipset_pipeline_release/opensource/component_code/vendor/huawei/extra/build/build_script/kirin_kernel_release/kernel/include/linux/sbitmap.h"
	.file	142 "/mnt/disk/jenkins/ci/workspace/chipset_pipeline_release/opensource/component_code/vendor/huawei/extra/build/build_script/kirin_kernel_release/kernel/block/blk-mq-tag.h"
	.file	143 "/mnt/disk/jenkins/ci/workspace/chipset_pipeline_release/opensource/component_code/vendor/huawei/extra/build/build_script/kirin_kernel_release/kernel/block/mas_blk.h"
	.file	144 "/mnt/disk/jenkins/ci/workspace/chipset_pipeline_release/opensource/component_code/vendor/huawei/extra/build/build_script/kirin_kernel_release/kernel/include/linux/srcutree.h"
	.file	145 "/mnt/disk/jenkins/ci/workspace/chipset_pipeline_release/opensource/component_code/vendor/huawei/extra/build/build_script/kirin_kernel_release/kernel/include/linux/rcu_segcblist.h"
	.file	146 "/mnt/disk/jenkins/ci/workspace/chipset_pipeline_release/opensource/component_code/vendor/huawei/extra/build/build_script/kirin_kernel_release/kernel/block/blk-wbt.h"
	.file	147 "/mnt/disk/jenkins/ci/workspace/chipset_pipeline_release/opensource/component_code/vendor/huawei/extra/build/build_script/kirin_kernel_release/kernel/block/blk-stat.h"
	.file	148 "/mnt/disk/jenkins/ci/workspace/chipset_pipeline_release/opensource/component_code/vendor/huawei/extra/build/build_script/kirin_kernel_release/kernel/include/linux/bsg.h"
	.file	149 "/mnt/disk/jenkins/ci/workspace/chipset_pipeline_release/opensource/component_code/vendor/huawei/extra/build/build_script/kirin_kernel_release/kernel/include/linux/notifier.h"
	.file	150 "/mnt/disk/jenkins/ci/workspace/chipset_pipeline_release/opensource/component_code/vendor/huawei/extra/build/build_script/kirin_kernel_release/kernel/include/linux/stddef.h"
	.file	151 "/mnt/disk/jenkins/ci/workspace/chipset_pipeline_release/opensource/component_code/vendor/huawei/extra/build/build_script/kirin_kernel_release/kernel/include/linux/interrupt.h"
	.file	152 "/mnt/disk/jenkins/ci/workspace/chipset_pipeline_release/opensource/component_code/vendor/huawei/extra/build/build_script/kirin_kernel_release/kernel/include/linux/slab.h"
	.section	.text.ufs_mq_inc_vip_wait_cnt,"ax",@progbits
	.hidden	ufs_mq_inc_vip_wait_cnt // -- Begin function ufs_mq_inc_vip_wait_cnt
	.globl	ufs_mq_inc_vip_wait_cnt
	.p2align	2
	.type	ufs_mq_inc_vip_wait_cnt,@function
ufs_mq_inc_vip_wait_cnt:                // @ufs_mq_inc_vip_wait_cnt
.Lfunc_begin0:
	.loc	1 266 0                 // kernel/block/mas_blk_iosched_ufs_mq.c:266:0
	.cfi_sections .debug_frame
	.cfi_startproc
// %bb.0:
	//DEBUG_VALUE: ufs_mq_inc_vip_wait_cnt:data <- $x0
	//DEBUG_VALUE: ufs_mq_inc_vip_wait_cnt:data <- $x0
	.loc	1 267 63 prologue_end   // kernel/block/mas_blk_iosched_ufs_mq.c:267:63
	ldr	x8, [x0]
.Ltmp0:
	//DEBUG_VALUE: get_sched_ds_lld:q <- $x8
	.loc	1 259 33                // kernel/block/mas_blk_iosched_ufs_mq.c:259:33
	ldr	x8, [x8, #1800]
.Ltmp1:
	//DEBUG_VALUE: get_sched_ds_lld:queuedata <- $x8
	.loc	1 261 9                 // kernel/block/mas_blk_iosched_ufs_mq.c:261:9
	cbz	x8, .LBB0_3
.Ltmp2:
// %bb.1:
	//DEBUG_VALUE: get_sched_ds_lld:queuedata <- $x8
	//DEBUG_VALUE: ufs_mq_inc_vip_wait_cnt:data <- $x0
	.loc	1 261 61 is_stmt 0      // kernel/block/mas_blk_iosched_ufs_mq.c:261:61
	ldr	x8, [x8, #280]
.Ltmp3:
	//DEBUG_VALUE: ufs_mq_inc_vip_wait_cnt:ds_lld <- $x8
	//DEBUG_VALUE: atomic_add:v <- [DW_OP_plus_uconst 28, DW_OP_stack_value] $x8
	.loc	1 268 5 is_stmt 1       // kernel/block/mas_blk_iosched_ufs_mq.c:268:5
	cbz	x8, .LBB0_3
.Ltmp4:
// %bb.2:
	//DEBUG_VALUE: atomic_add:v <- [DW_OP_plus_uconst 28, DW_OP_stack_value] $x8
	//DEBUG_VALUE: ufs_mq_inc_vip_wait_cnt:ds_lld <- $x8
	//DEBUG_VALUE: ufs_mq_inc_vip_wait_cnt:data <- $x0
	//DEBUG_VALUE: atomic_add:i <- 1
	.file	153 "/mnt/disk/jenkins/ci/workspace/chipset_pipeline_release/opensource/component_code/vendor/huawei/extra/build/build_script/kirin_kernel_release/kernel/arch/arm64/include/asm/atomic_ll_sc.h"
	.loc	153 113 1               // kernel/arch/arm64/include/asm/atomic_ll_sc.h:113:1
	add	x8, x8, #28             // =28
.Ltmp5:
	//APP
	// atomic_add
	prfm	pstl1strm, [x8]
1:	ldxr	w9, [x8]
	add	w9, w9, #1
	stxr	w10, w9, [x8]
	cbnz	w10, 1b
	//NO_APP
.Ltmp6:
	//DEBUG_VALUE: atomic_add:tmp <- undef
	//DEBUG_VALUE: atomic_add:result <- undef
.LBB0_3:
	//DEBUG_VALUE: ufs_mq_inc_vip_wait_cnt:data <- $x0
	.loc	1 272 1                 // kernel/block/mas_blk_iosched_ufs_mq.c:272:1
	ret
.Ltmp7:
.Lfunc_end0:
	.size	ufs_mq_inc_vip_wait_cnt, .Lfunc_end0-ufs_mq_inc_vip_wait_cnt
	.cfi_endproc
                                        // -- End function
	.section	.text.ufs_mq_dec_vip_wait_cnt,"ax",@progbits
	.hidden	ufs_mq_dec_vip_wait_cnt // -- Begin function ufs_mq_dec_vip_wait_cnt
	.globl	ufs_mq_dec_vip_wait_cnt
	.p2align	2
	.type	ufs_mq_dec_vip_wait_cnt,@function
ufs_mq_dec_vip_wait_cnt:                // @ufs_mq_dec_vip_wait_cnt
.Lfunc_begin1:
	.loc	1 275 0                 // kernel/block/mas_blk_iosched_ufs_mq.c:275:0
	.cfi_startproc
// %bb.0:
	//DEBUG_VALUE: ufs_mq_dec_vip_wait_cnt:data <- $x0
	//DEBUG_VALUE: ufs_mq_dec_vip_wait_cnt:data <- $x0
	.loc	1 276 63 prologue_end   // kernel/block/mas_blk_iosched_ufs_mq.c:276:63
	ldr	x8, [x0]
.Ltmp8:
	//DEBUG_VALUE: get_sched_ds_lld:q <- $x8
	.loc	1 259 33                // kernel/block/mas_blk_iosched_ufs_mq.c:259:33
	ldr	x8, [x8, #1800]
.Ltmp9:
	//DEBUG_VALUE: get_sched_ds_lld:queuedata <- $x8
	.loc	1 261 9                 // kernel/block/mas_blk_iosched_ufs_mq.c:261:9
	cbz	x8, .LBB1_2
.Ltmp10:
// %bb.1:
	//DEBUG_VALUE: get_sched_ds_lld:queuedata <- $x8
	//DEBUG_VALUE: ufs_mq_dec_vip_wait_cnt:data <- $x0
	.loc	1 261 61 is_stmt 0      // kernel/block/mas_blk_iosched_ufs_mq.c:261:61
	ldr	x8, [x8, #280]
.Ltmp11:
.LBB1_2:
	//DEBUG_VALUE: ufs_mq_dec_vip_wait_cnt:data <- $x0
	//DEBUG_VALUE: ufs_mq_dec_vip_wait_cnt:ds_lld <- $x8
	//DEBUG_VALUE: __cmpxchg_case_mb_4:ptr <- [DW_OP_plus_uconst 28, DW_OP_stack_value] $x8
	//DEBUG_VALUE: __cmpxchg_mb:ptr <- [DW_OP_plus_uconst 28, DW_OP_stack_value] $x8
	//DEBUG_VALUE: atomic_dec_if_positive:v <- [DW_OP_plus_uconst 28, DW_OP_stack_value] $x8
	//DEBUG_VALUE: __read_once_size:p <- [DW_OP_plus_uconst 28, DW_OP_stack_value] $x8
	//DEBUG_VALUE: __read_once_size:res <- undef
	//DEBUG_VALUE: __read_once_size:size <- 4
	.file	154 "/mnt/disk/jenkins/ci/workspace/chipset_pipeline_release/opensource/component_code/vendor/huawei/extra/build/build_script/kirin_kernel_release/kernel/include/linux/compiler.h"
	.loc	154 183 2 is_stmt 1     // kernel/include/linux/compiler.h:183:2
	ldr	w9, [x8, #28]
.Ltmp12:
	//DEBUG_VALUE: atomic_dec_if_positive:c <- $w9
.LBB1_3:                                // =>This Inner Loop Header: Depth=1
	//DEBUG_VALUE: atomic_dec_if_positive:c <- $w9
	//DEBUG_VALUE: atomic_dec_if_positive:v <- [DW_OP_plus_uconst 28, DW_OP_stack_value] $x8
	//DEBUG_VALUE: ufs_mq_dec_vip_wait_cnt:ds_lld <- $x8
	//DEBUG_VALUE: ufs_mq_dec_vip_wait_cnt:data <- $x0
	//DEBUG_VALUE: atomic_dec_if_positive:c <- $w9
	.file	155 "/mnt/disk/jenkins/ci/workspace/chipset_pipeline_release/opensource/component_code/vendor/huawei/extra/build/build_script/kirin_kernel_release/kernel/include/linux/atomic.h"
	.loc	155 645 11              // kernel/include/linux/atomic.h:645:11
	subs	w10, w9, #1             // =1
.Ltmp13:
	//DEBUG_VALUE: atomic_dec_if_positive:dec <- $w10
	.loc	155 646 7               // kernel/include/linux/atomic.h:646:7
	b.mi	.LBB1_5
.Ltmp14:
// %bb.4:                               //   in Loop: Header=BB1_3 Depth=1
	//DEBUG_VALUE: atomic_dec_if_positive:dec <- $w10
	//DEBUG_VALUE: atomic_dec_if_positive:c <- $w9
	//DEBUG_VALUE: atomic_dec_if_positive:v <- [DW_OP_plus_uconst 28, DW_OP_stack_value] $x8
	//DEBUG_VALUE: ufs_mq_dec_vip_wait_cnt:ds_lld <- $x8
	//DEBUG_VALUE: ufs_mq_dec_vip_wait_cnt:data <- $x0
	.loc	155 648 9               // kernel/include/linux/atomic.h:648:9
	sxtw	x11, w9
	sxtw	x10, w10
.Ltmp15:
	//DEBUG_VALUE: __cmpxchg_mb:size <- 4
	//DEBUG_VALUE: __cmpxchg_case_mb_4:new <- $x10
	//DEBUG_VALUE: __cmpxchg_mb:new <- $x10
	//DEBUG_VALUE: __cmpxchg_mb:old <- $x11
	//DEBUG_VALUE: __cmpxchg_case_mb_4:old <- $x11
	.loc	153 291 1               // kernel/arch/arm64/include/asm/atomic_ll_sc.h:291:1
	add	x12, x8, #28            // =28
	//APP
		prfm	pstl1strm, [x12]
1:	ldxr	w14, [x12]
	eor	w13, w14, w11
	cbnz	w13, 2f
	stlxr	w13, w10, [x12]
	cbnz	w13, 1b
	dmb ish
2:
	//NO_APP
.Ltmp16:
	//DEBUG_VALUE: atomic_dec_if_positive:old <- $w14
	//DEBUG_VALUE: __ret <- $w14
	//DEBUG_VALUE: __cmpxchg_case_mb_4:tmp <- undef
	//DEBUG_VALUE: __cmpxchg_case_mb_4:oldval <- $x14
	.loc	155 649 7               // kernel/include/linux/atomic.h:649:7
	cmp	w9, w14
.Ltmp17:
	.loc	155 0 0 is_stmt 0       // kernel/include/linux/atomic.h:0:0
	mov	w9, w14
.Ltmp18:
	.loc	155 649 7               // kernel/include/linux/atomic.h:649:7
	b.ne	.LBB1_3
.Ltmp19:
.LBB1_5:
	//DEBUG_VALUE: ufs_mq_dec_vip_wait_cnt:ds_lld <- $x8
	//DEBUG_VALUE: ufs_mq_dec_vip_wait_cnt:data <- $x0
	.loc	1 279 1 is_stmt 1       // kernel/block/mas_blk_iosched_ufs_mq.c:279:1
	ret
.Ltmp20:
.Lfunc_end1:
	.size	ufs_mq_dec_vip_wait_cnt, .Lfunc_end1-ufs_mq_dec_vip_wait_cnt
	.cfi_endproc
	.file	156 "/mnt/disk/jenkins/ci/workspace/chipset_pipeline_release/opensource/component_code/vendor/huawei/extra/build/build_script/kirin_kernel_release/kernel/arch/arm64/include/asm/cmpxchg.h"
                                        // -- End function
	.section	.text.reset_vip_wait_cnt,"ax",@progbits
	.hidden	reset_vip_wait_cnt      // -- Begin function reset_vip_wait_cnt
	.globl	reset_vip_wait_cnt
	.p2align	2
	.type	reset_vip_wait_cnt,@function
reset_vip_wait_cnt:                     // @reset_vip_wait_cnt
.Lfunc_begin2:
	.loc	1 282 0                 // kernel/block/mas_blk_iosched_ufs_mq.c:282:0
	.cfi_startproc
// %bb.0:
	//DEBUG_VALUE: reset_vip_wait_cnt:data <- $x0
	//DEBUG_VALUE: reset_vip_wait_cnt:data <- $x0
	.loc	1 283 63 prologue_end   // kernel/block/mas_blk_iosched_ufs_mq.c:283:63
	ldr	x8, [x0]
.Ltmp21:
	//DEBUG_VALUE: get_sched_ds_lld:q <- $x8
	.loc	1 259 33                // kernel/block/mas_blk_iosched_ufs_mq.c:259:33
	ldr	x8, [x8, #1800]
.Ltmp22:
	//DEBUG_VALUE: get_sched_ds_lld:queuedata <- $x8
	.loc	1 261 9                 // kernel/block/mas_blk_iosched_ufs_mq.c:261:9
	cbz	x8, .LBB2_2
.Ltmp23:
// %bb.1:
	//DEBUG_VALUE: get_sched_ds_lld:queuedata <- $x8
	//DEBUG_VALUE: reset_vip_wait_cnt:data <- $x0
	.loc	1 261 61 is_stmt 0      // kernel/block/mas_blk_iosched_ufs_mq.c:261:61
	ldr	x8, [x8, #280]
.Ltmp24:
.LBB2_2:
	//DEBUG_VALUE: reset_vip_wait_cnt:data <- $x0
	//DEBUG_VALUE: reset_vip_wait_cnt:ds_lld <- $x8
	//DEBUG_VALUE: __read_once_size:p <- [DW_OP_plus_uconst 24, DW_OP_stack_value] $x8
	//DEBUG_VALUE: __read_once_size:res <- undef
	//DEBUG_VALUE: __read_once_size:size <- 4
	.loc	154 183 2 is_stmt 1     // kernel/include/linux/compiler.h:183:2
	ldr	w9, [x8, #24]
.Ltmp25:
	.loc	1 285 6                 // kernel/block/mas_blk_iosched_ufs_mq.c:285:6
	cbz	w9, .LBB2_4
.Ltmp26:
// %bb.3:
	//DEBUG_VALUE: reset_vip_wait_cnt:ds_lld <- $x8
	//DEBUG_VALUE: reset_vip_wait_cnt:data <- $x0
	.loc	1 289 1                 // kernel/block/mas_blk_iosched_ufs_mq.c:289:1
	ret
.Ltmp27:
.LBB2_4:
	//DEBUG_VALUE: reset_vip_wait_cnt:ds_lld <- $x8
	//DEBUG_VALUE: reset_vip_wait_cnt:data <- $x0
	//DEBUG_VALUE: __write_once_size:p <- [DW_OP_plus_uconst 28, DW_OP_stack_value] $x8
	//DEBUG_VALUE: __write_once_size:res <- undef
	//DEBUG_VALUE: __write_once_size:size <- 4
	.loc	154 209 31              // kernel/include/linux/compiler.h:209:31
	str	wzr, [x8, #28]
.Ltmp28:
	.loc	1 289 1                 // kernel/block/mas_blk_iosched_ufs_mq.c:289:1
	ret
.Ltmp29:
.Lfunc_end2:
	.size	reset_vip_wait_cnt, .Lfunc_end2-reset_vip_wait_cnt
	.cfi_endproc
                                        // -- End function
	.section	.text.ufs_mq_vip_tag_wait_cnt,"ax",@progbits
	.hidden	ufs_mq_vip_tag_wait_cnt // -- Begin function ufs_mq_vip_tag_wait_cnt
	.globl	ufs_mq_vip_tag_wait_cnt
	.p2align	2
	.type	ufs_mq_vip_tag_wait_cnt,@function
ufs_mq_vip_tag_wait_cnt:                // @ufs_mq_vip_tag_wait_cnt
.Lfunc_begin3:
	.loc	1 292 0                 // kernel/block/mas_blk_iosched_ufs_mq.c:292:0
	.cfi_startproc
// %bb.0:
	//DEBUG_VALUE: ufs_mq_vip_tag_wait_cnt:data <- $x0
	//DEBUG_VALUE: ufs_mq_vip_tag_wait_cnt:data <- $x0
	.loc	1 293 63 prologue_end   // kernel/block/mas_blk_iosched_ufs_mq.c:293:63
	ldr	x8, [x0]
.Ltmp30:
	//DEBUG_VALUE: get_sched_ds_lld:q <- $x8
	.loc	1 259 33                // kernel/block/mas_blk_iosched_ufs_mq.c:259:33
	ldr	x8, [x8, #1800]
.Ltmp31:
	//DEBUG_VALUE: get_sched_ds_lld:queuedata <- $x8
	.loc	1 261 9                 // kernel/block/mas_blk_iosched_ufs_mq.c:261:9
	cbz	x8, .LBB3_2
.Ltmp32:
// %bb.1:
	//DEBUG_VALUE: get_sched_ds_lld:queuedata <- $x8
	//DEBUG_VALUE: ufs_mq_vip_tag_wait_cnt:data <- $x0
	.loc	1 261 61 is_stmt 0      // kernel/block/mas_blk_iosched_ufs_mq.c:261:61
	ldr	x8, [x8, #280]
.Ltmp33:
.LBB3_2:
	//DEBUG_VALUE: ufs_mq_vip_tag_wait_cnt:data <- $x0
	//DEBUG_VALUE: ufs_mq_vip_tag_wait_cnt:ds_lld <- $x8
	//DEBUG_VALUE: __read_once_size:p <- [DW_OP_plus_uconst 28, DW_OP_stack_value] $x8
	//DEBUG_VALUE: __read_once_size:res <- undef
	//DEBUG_VALUE: __read_once_size:size <- 4
	.loc	154 183 2 is_stmt 1     // kernel/include/linux/compiler.h:183:2
	ldr	w0, [x8, #28]
.Ltmp34:
	.loc	1 295 2                 // kernel/block/mas_blk_iosched_ufs_mq.c:295:2
	ret
.Ltmp35:
.Lfunc_end3:
	.size	ufs_mq_vip_tag_wait_cnt, .Lfunc_end3-ufs_mq_vip_tag_wait_cnt
	.cfi_endproc
                                        // -- End function
	.section	.text.get_mq_all_tag_used,"ax",@progbits
	.hidden	get_mq_all_tag_used     // -- Begin function get_mq_all_tag_used
	.globl	get_mq_all_tag_used
	.p2align	2
	.type	get_mq_all_tag_used,@function
get_mq_all_tag_used:                    // @get_mq_all_tag_used
.Lfunc_begin4:
	.loc	1 388 0                 // kernel/block/mas_blk_iosched_ufs_mq.c:388:0
	.cfi_startproc
// %bb.0:
	//DEBUG_VALUE: get_mq_all_tag_used:q <- $x0
	//DEBUG_VALUE: get_mq_all_tag_used:q <- $x0
	//DEBUG_VALUE: get_mq_all_tag_used:sched_ds_lld <- 0
	//DEBUG_VALUE: get_mq_all_tag_used:lld <- 0
	.loc	1 392 6 prologue_end    // kernel/block/mas_blk_iosched_ufs_mq.c:392:6
	cbz	x0, .LBB4_4
.Ltmp36:
// %bb.1:
	//DEBUG_VALUE: get_mq_all_tag_used:q <- $x0
	stp	x29, x30, [sp, #-16]!   // 16-byte Folded Spill
	mov	x29, sp
	.cfi_def_cfa w29, 16
	.cfi_offset w30, -8
	.cfi_offset w29, -16
	.loc	1 394 8                 // kernel/block/mas_blk_iosched_ufs_mq.c:394:8
	bl	mas_blk_get_lld
.Ltmp37:
	//DEBUG_VALUE: get_mq_all_tag_used:lld <- $x0
	.loc	1 395 6                 // kernel/block/mas_blk_iosched_ufs_mq.c:395:6
	ldp	x29, x30, [sp], #16     // 16-byte Folded Reload
	cbz	x0, .LBB4_4
.Ltmp38:
// %bb.2:
	//DEBUG_VALUE: get_mq_all_tag_used:lld <- $x0
	.loc	1 397 53                // kernel/block/mas_blk_iosched_ufs_mq.c:397:53
	ldr	x8, [x0, #528]
.Ltmp39:
	//DEBUG_VALUE: get_mq_all_tag_used:sched_ds_lld <- $x8
	.loc	1 398 6                 // kernel/block/mas_blk_iosched_ufs_mq.c:398:6
	cbz	x8, .LBB4_5
.Ltmp40:
// %bb.3:
	//DEBUG_VALUE: get_mq_all_tag_used:sched_ds_lld <- $x8
	//DEBUG_VALUE: get_mq_all_tag_used:lld <- $x0
	//DEBUG_VALUE: __read_once_size:p <- [DW_OP_plus_uconst 24, DW_OP_stack_value] $x8
	//DEBUG_VALUE: __read_once_size:res <- undef
	//DEBUG_VALUE: __read_once_size:size <- 4
	.loc	154 183 2               // kernel/include/linux/compiler.h:183:2
	ldr	w9, [x8, #24]
.Ltmp41:
	//DEBUG_VALUE: __read_once_size:p <- [DW_OP_plus_uconst 16, DW_OP_stack_value] $x8
	//DEBUG_VALUE: __read_once_size:size <- 4
	//DEBUG_VALUE: __read_once_size:res <- undef
	.loc	154 183 2 is_stmt 0     // kernel/include/linux/compiler.h:183:2
	ldr	w10, [x8, #16]
.Ltmp42:
	.loc	154 183 2               // kernel/include/linux/compiler.h:183:2
	ldr	w8, [x8, #20]
.Ltmp43:
	.loc	1 400 58 is_stmt 1      // kernel/block/mas_blk_iosched_ufs_mq.c:400:58
	add	w9, w10, w9
.Ltmp44:
	//DEBUG_VALUE: __read_once_size:p <- [DW_OP_plus_uconst 20, DW_OP_stack_value] undef
	//DEBUG_VALUE: __read_once_size:size <- 4
	//DEBUG_VALUE: __read_once_size:res <- undef
	.loc	1 401 53                // kernel/block/mas_blk_iosched_ufs_mq.c:401:53
	add	w0, w9, w8
.Ltmp45:
.LBB4_4:
	.loc	1 403 1                 // kernel/block/mas_blk_iosched_ufs_mq.c:403:1
	ret
.LBB4_5:
.Ltmp46:
	//DEBUG_VALUE: get_mq_all_tag_used:sched_ds_lld <- $x8
	//DEBUG_VALUE: get_mq_all_tag_used:lld <- $x0
	.loc	1 0 0 is_stmt 0         // kernel/block/mas_blk_iosched_ufs_mq.c:0:0
	mov	w0, wzr
.Ltmp47:
	.loc	1 403 1                 // kernel/block/mas_blk_iosched_ufs_mq.c:403:1
	ret
.Ltmp48:
.Lfunc_end4:
	.size	get_mq_all_tag_used, .Lfunc_end4-get_mq_all_tag_used
	.cfi_endproc
                                        // -- End function
	.section	.text.get_mq_prio_tag_used,"ax",@progbits
	.hidden	get_mq_prio_tag_used    // -- Begin function get_mq_prio_tag_used
	.globl	get_mq_prio_tag_used
	.p2align	2
	.type	get_mq_prio_tag_used,@function
get_mq_prio_tag_used:                   // @get_mq_prio_tag_used
.Lfunc_begin5:
	.loc	1 406 0 is_stmt 1       // kernel/block/mas_blk_iosched_ufs_mq.c:406:0
	.cfi_startproc
// %bb.0:
	//DEBUG_VALUE: get_mq_prio_tag_used:q <- $x0
	//DEBUG_VALUE: get_mq_prio_tag_used:q <- $x0
	//DEBUG_VALUE: get_mq_prio_tag_used:sched_ds_lld <- 0
	//DEBUG_VALUE: get_mq_prio_tag_used:lld <- 0
	.loc	1 410 6 prologue_end    // kernel/block/mas_blk_iosched_ufs_mq.c:410:6
	cbz	x0, .LBB5_4
.Ltmp49:
// %bb.1:
	//DEBUG_VALUE: get_mq_prio_tag_used:q <- $x0
	stp	x29, x30, [sp, #-16]!   // 16-byte Folded Spill
	mov	x29, sp
	.cfi_def_cfa w29, 16
	.cfi_offset w30, -8
	.cfi_offset w29, -16
	.loc	1 412 8                 // kernel/block/mas_blk_iosched_ufs_mq.c:412:8
	bl	mas_blk_get_lld
.Ltmp50:
	//DEBUG_VALUE: get_mq_prio_tag_used:lld <- $x0
	.loc	1 413 6                 // kernel/block/mas_blk_iosched_ufs_mq.c:413:6
	ldp	x29, x30, [sp], #16     // 16-byte Folded Reload
	cbz	x0, .LBB5_4
.Ltmp51:
// %bb.2:
	//DEBUG_VALUE: get_mq_prio_tag_used:lld <- $x0
	.loc	1 415 53                // kernel/block/mas_blk_iosched_ufs_mq.c:415:53
	ldr	x8, [x0, #528]
.Ltmp52:
	//DEBUG_VALUE: get_mq_prio_tag_used:sched_ds_lld <- $x8
	.loc	1 416 6                 // kernel/block/mas_blk_iosched_ufs_mq.c:416:6
	cbz	x8, .LBB5_5
.Ltmp53:
// %bb.3:
	//DEBUG_VALUE: get_mq_prio_tag_used:sched_ds_lld <- $x8
	//DEBUG_VALUE: get_mq_prio_tag_used:lld <- $x0
	//DEBUG_VALUE: __read_once_size:p <- [DW_OP_plus_uconst 24, DW_OP_stack_value] $x8
	//DEBUG_VALUE: __read_once_size:res <- undef
	//DEBUG_VALUE: __read_once_size:size <- 4
	.loc	154 183 2               // kernel/include/linux/compiler.h:183:2
	ldr	w0, [x8, #24]
.Ltmp54:
.LBB5_4:
	.loc	1 419 1                 // kernel/block/mas_blk_iosched_ufs_mq.c:419:1
	ret
.LBB5_5:
.Ltmp55:
	//DEBUG_VALUE: get_mq_prio_tag_used:sched_ds_lld <- $x8
	//DEBUG_VALUE: get_mq_prio_tag_used:lld <- $x0
	.loc	1 0 0 is_stmt 0         // kernel/block/mas_blk_iosched_ufs_mq.c:0:0
	mov	w0, wzr
.Ltmp56:
	.loc	1 419 1                 // kernel/block/mas_blk_iosched_ufs_mq.c:419:1
	ret
.Ltmp57:
.Lfunc_end5:
	.size	get_mq_prio_tag_used, .Lfunc_end5-get_mq_prio_tag_used
	.cfi_endproc
                                        // -- End function
	.section	.text.ufs_mq_tag_get,"ax",@progbits
	.hidden	ufs_mq_tag_get          // -- Begin function ufs_mq_tag_get
	.globl	ufs_mq_tag_get
	.p2align	2
	.type	ufs_mq_tag_get,@function
ufs_mq_tag_get:                         // @ufs_mq_tag_get
.Lfunc_begin6:
	.loc	1 494 0 is_stmt 1       // kernel/block/mas_blk_iosched_ufs_mq.c:494:0
	.cfi_startproc
// %bb.0:
	//DEBUG_VALUE: ufs_mq_tag_get:data <- $x0
	str	x19, [sp, #-32]!        // 8-byte Folded Spill
	stp	x29, x30, [sp, #16]     // 16-byte Folded Spill
	add	x29, sp, #16            // =16
	.cfi_def_cfa w29, 16
	.cfi_offset w30, -8
	.cfi_offset w29, -16
	.cfi_offset w19, -32
.Ltmp58:
	.loc	1 495 29 prologue_end   // kernel/block/mas_blk_iosched_ufs_mq.c:495:29
	ldr	x9, [x0, #8]
	mov	w10, #4096
	movk	w10, #64, lsl #16
	.loc	1 495 37 is_stmt 0      // kernel/block/mas_blk_iosched_ufs_mq.c:495:37
	add	x8, x10, #2048          // =2048
	and	x8, x9, x8
.Ltmp59:
	//DEBUG_VALUE: ufs_mq_tag_get:flag <- $x8
	.loc	1 0 37                  // kernel/block/mas_blk_iosched_ufs_mq.c:0:37
	mov	x19, x0
.Ltmp60:
	//DEBUG_VALUE: ufs_mq_tag_get:data <- $x19
	.loc	1 503 6 is_stmt 1       // kernel/block/mas_blk_iosched_ufs_mq.c:503:6
	cmp	x8, #2048               // =2048
	b.ne	.LBB6_6
.Ltmp61:
// %bb.1:
	//DEBUG_VALUE: ufs_mq_tag_get:data <- $x19
	//DEBUG_VALUE: ufs_mq_tag_get:flag <- $x8
	//DEBUG_VALUE: ufs_tagset_get_tag:data <- $x19
	.loc	1 334 10                // kernel/block/mas_blk_iosched_ufs_mq.c:334:10
	ldr	x2, [x19, #48]
	.loc	1 333 8                 // kernel/block/mas_blk_iosched_ufs_mq.c:333:8
	mov	x0, x19
	.loc	1 334 16                // kernel/block/mas_blk_iosched_ufs_mq.c:334:16
	ldr	x8, [x2, #304]
.Ltmp62:
	.loc	1 334 22 is_stmt 0      // kernel/block/mas_blk_iosched_ufs_mq.c:334:22
	add	x1, x8, #40             // =40
	.loc	1 333 8 is_stmt 1       // kernel/block/mas_blk_iosched_ufs_mq.c:333:8
	bl	ufs_tagset_bt_get
.Ltmp63:
	//DEBUG_VALUE: ufs_tagset_get_tag:tag <- $w0
	.loc	1 335 6                 // kernel/block/mas_blk_iosched_ufs_mq.c:335:6
	cmn	w0, #1                  // =1
	b.eq	.LBB6_5
.Ltmp64:
// %bb.2:
	//DEBUG_VALUE: ufs_tagset_get_tag:tag <- $w0
	//DEBUG_VALUE: ufs_tagset_get_tag:data <- $x19
	//DEBUG_VALUE: ufs_mq_tag_get:data <- $x19
	.loc	1 336 3                 // kernel/block/mas_blk_iosched_ufs_mq.c:336:3
	ldr	x8, [x19]
.Ltmp65:
	//DEBUG_VALUE: get_sched_ds_lld:q <- $x8
	.loc	1 259 33                // kernel/block/mas_blk_iosched_ufs_mq.c:259:33
	ldr	x8, [x8, #1800]
.Ltmp66:
	//DEBUG_VALUE: get_sched_ds_lld:queuedata <- $x8
	.loc	1 261 9                 // kernel/block/mas_blk_iosched_ufs_mq.c:261:9
	cbz	x8, .LBB6_4
.Ltmp67:
// %bb.3:
	//DEBUG_VALUE: get_sched_ds_lld:queuedata <- $x8
	//DEBUG_VALUE: ufs_tagset_get_tag:tag <- $w0
	//DEBUG_VALUE: ufs_tagset_get_tag:data <- $x19
	//DEBUG_VALUE: ufs_mq_tag_get:data <- $x19
	.loc	1 261 61 is_stmt 0      // kernel/block/mas_blk_iosched_ufs_mq.c:261:61
	ldr	x8, [x8, #280]
.Ltmp68:
.LBB6_4:
	//DEBUG_VALUE: ufs_tagset_get_tag:tag <- $w0
	//DEBUG_VALUE: ufs_tagset_get_tag:data <- $x19
	//DEBUG_VALUE: ufs_mq_tag_get:data <- $x19
	//DEBUG_VALUE: atomic_add:i <- 1
	//DEBUG_VALUE: atomic_add:v <- [DW_OP_plus_uconst 16, DW_OP_stack_value] $x8
	.loc	153 113 1 is_stmt 1     // kernel/arch/arm64/include/asm/atomic_ll_sc.h:113:1
	add	x8, x8, #16             // =16
.Ltmp69:
	//APP
	// atomic_add
	prfm	pstl1strm, [x8]
1:	ldxr	w9, [x8]
	add	w9, w9, #1
	stxr	w10, w9, [x8]
	cbnz	w10, 1b
	//NO_APP
.Ltmp70:
	//DEBUG_VALUE: atomic_add:tmp <- undef
	//DEBUG_VALUE: atomic_add:result <- undef
.LBB6_5:
	//DEBUG_VALUE: ufs_mq_tag_get:data <- $x19
	//DEBUG_VALUE: ufs_mq_tag_get:tag <- $w0
	.loc	1 510 2                 // kernel/block/mas_blk_iosched_ufs_mq.c:510:2
	ldp	x29, x30, [sp, #16]     // 16-byte Folded Reload
	ldr	x19, [sp], #32          // 8-byte Folded Reload
.Ltmp71:
	ret
.Ltmp72:
.LBB6_6:
	//DEBUG_VALUE: ufs_mq_tag_get:data <- $x19
	//DEBUG_VALUE: ufs_mq_tag_get:flag <- $x8
	.loc	1 0 0 is_stmt 0         // kernel/block/mas_blk_iosched_ufs_mq.c:0:0
	ldr	x2, [x19, #48]
	.loc	1 505 16 is_stmt 1      // kernel/block/mas_blk_iosched_ufs_mq.c:505:16
	tst	x9, x10
	.loc	1 0 0 is_stmt 0         // kernel/block/mas_blk_iosched_ufs_mq.c:0:0
	ldr	x8, [x2, #304]
.Ltmp73:
	.loc	1 505 11                // kernel/block/mas_blk_iosched_ufs_mq.c:505:11
	b.eq	.LBB6_12
.Ltmp74:
// %bb.7:
	//DEBUG_VALUE: ufs_mq_tag_get:data <- $x19
	//DEBUG_VALUE: ufs_tagset_get_high_prio_tag:data <- $x19
	.loc	1 370 6 is_stmt 1       // kernel/block/mas_blk_iosched_ufs_mq.c:370:6
	ldr	w9, [x8, #8]
.Ltmp75:
	.loc	1 370 6 is_stmt 0       // kernel/block/mas_blk_iosched_ufs_mq.c:370:6
	cbz	w9, .LBB6_18
.Ltmp76:
// %bb.8:
	//DEBUG_VALUE: ufs_tagset_get_high_prio_tag:data <- $x19
	//DEBUG_VALUE: ufs_mq_tag_get:data <- $x19
	.loc	1 379 22 is_stmt 1      // kernel/block/mas_blk_iosched_ufs_mq.c:379:22
	add	x1, x8, #152            // =152
	.loc	1 378 8                 // kernel/block/mas_blk_iosched_ufs_mq.c:378:8
	mov	x0, x19
	bl	ufs_tagset_bt_get
.Ltmp77:
	//DEBUG_VALUE: ufs_tagset_get_high_prio_tag:tag <- $w0
	.loc	1 380 6                 // kernel/block/mas_blk_iosched_ufs_mq.c:380:6
	cmn	w0, #1                  // =1
	b.eq	.LBB6_5
.Ltmp78:
// %bb.9:
	//DEBUG_VALUE: ufs_tagset_get_high_prio_tag:tag <- $w0
	//DEBUG_VALUE: ufs_tagset_get_high_prio_tag:data <- $x19
	//DEBUG_VALUE: ufs_mq_tag_get:data <- $x19
	.loc	1 381 3                 // kernel/block/mas_blk_iosched_ufs_mq.c:381:3
	ldr	x8, [x19]
.Ltmp79:
	//DEBUG_VALUE: get_sched_ds_lld:q <- $x8
	.loc	1 259 33                // kernel/block/mas_blk_iosched_ufs_mq.c:259:33
	ldr	x8, [x8, #1800]
.Ltmp80:
	//DEBUG_VALUE: get_sched_ds_lld:queuedata <- $x8
	.loc	1 261 9                 // kernel/block/mas_blk_iosched_ufs_mq.c:261:9
	cbz	x8, .LBB6_11
.Ltmp81:
// %bb.10:
	//DEBUG_VALUE: get_sched_ds_lld:queuedata <- $x8
	//DEBUG_VALUE: ufs_tagset_get_high_prio_tag:tag <- $w0
	//DEBUG_VALUE: ufs_tagset_get_high_prio_tag:data <- $x19
	//DEBUG_VALUE: ufs_mq_tag_get:data <- $x19
	.loc	1 261 61 is_stmt 0      // kernel/block/mas_blk_iosched_ufs_mq.c:261:61
	ldr	x8, [x8, #280]
.Ltmp82:
.LBB6_11:
	//DEBUG_VALUE: ufs_tagset_get_high_prio_tag:tag <- $w0
	//DEBUG_VALUE: ufs_tagset_get_high_prio_tag:data <- $x19
	//DEBUG_VALUE: ufs_mq_tag_get:data <- $x19
	//DEBUG_VALUE: atomic_add:i <- 1
	//DEBUG_VALUE: atomic_add:v <- [DW_OP_plus_uconst 24, DW_OP_stack_value] $x8
	.loc	153 113 1 is_stmt 1     // kernel/arch/arm64/include/asm/atomic_ll_sc.h:113:1
	add	x8, x8, #24             // =24
.Ltmp83:
	//APP
	// atomic_add
	prfm	pstl1strm, [x8]
1:	ldxr	w9, [x8]
	add	w9, w9, #1
	stxr	w10, w9, [x8]
	cbnz	w10, 1b
	//NO_APP
.Ltmp84:
	//DEBUG_VALUE: atomic_add:tmp <- undef
	//DEBUG_VALUE: atomic_add:result <- undef
	.loc	1 382 16                // kernel/block/mas_blk_iosched_ufs_mq.c:382:16
	ldr	x8, [x19, #48]
	.loc	1 382 22 is_stmt 0      // kernel/block/mas_blk_iosched_ufs_mq.c:382:22
	ldr	x8, [x8, #304]
	.loc	1 382 28                // kernel/block/mas_blk_iosched_ufs_mq.c:382:28
	ldr	w8, [x8, #20]
	b	.LBB6_17
.Ltmp85:
.LBB6_12:
	//DEBUG_VALUE: ufs_mq_tag_get:data <- $x19
	//DEBUG_VALUE: ufs_tagset_get_reserved_tag:data <- $x19
	.loc	1 346 6 is_stmt 1       // kernel/block/mas_blk_iosched_ufs_mq.c:346:6
	ldr	w9, [x8, #4]
.Ltmp86:
	.loc	1 346 6 is_stmt 0       // kernel/block/mas_blk_iosched_ufs_mq.c:346:6
	cbz	w9, .LBB6_18
.Ltmp87:
// %bb.13:
	//DEBUG_VALUE: ufs_tagset_get_reserved_tag:data <- $x19
	//DEBUG_VALUE: ufs_mq_tag_get:data <- $x19
	.loc	1 355 22 is_stmt 1      // kernel/block/mas_blk_iosched_ufs_mq.c:355:22
	add	x1, x8, #96             // =96
	.loc	1 354 8                 // kernel/block/mas_blk_iosched_ufs_mq.c:354:8
	mov	x0, x19
	bl	ufs_tagset_bt_get
.Ltmp88:
	//DEBUG_VALUE: ufs_tagset_get_reserved_tag:tag <- $w0
	.loc	1 356 6                 // kernel/block/mas_blk_iosched_ufs_mq.c:356:6
	cmn	w0, #1                  // =1
	b.eq	.LBB6_5
.Ltmp89:
// %bb.14:
	//DEBUG_VALUE: ufs_tagset_get_reserved_tag:tag <- $w0
	//DEBUG_VALUE: ufs_tagset_get_reserved_tag:data <- $x19
	//DEBUG_VALUE: ufs_mq_tag_get:data <- $x19
	.loc	1 357 3                 // kernel/block/mas_blk_iosched_ufs_mq.c:357:3
	ldr	x8, [x19]
.Ltmp90:
	//DEBUG_VALUE: get_sched_ds_lld:q <- $x8
	.loc	1 259 33                // kernel/block/mas_blk_iosched_ufs_mq.c:259:33
	ldr	x8, [x8, #1800]
.Ltmp91:
	//DEBUG_VALUE: get_sched_ds_lld:queuedata <- $x8
	.loc	1 261 9                 // kernel/block/mas_blk_iosched_ufs_mq.c:261:9
	cbz	x8, .LBB6_16
.Ltmp92:
// %bb.15:
	//DEBUG_VALUE: get_sched_ds_lld:queuedata <- $x8
	//DEBUG_VALUE: ufs_tagset_get_reserved_tag:tag <- $w0
	//DEBUG_VALUE: ufs_tagset_get_reserved_tag:data <- $x19
	//DEBUG_VALUE: ufs_mq_tag_get:data <- $x19
	.loc	1 261 61 is_stmt 0      // kernel/block/mas_blk_iosched_ufs_mq.c:261:61
	ldr	x8, [x8, #280]
.Ltmp93:
.LBB6_16:
	//DEBUG_VALUE: ufs_tagset_get_reserved_tag:tag <- $w0
	//DEBUG_VALUE: ufs_tagset_get_reserved_tag:data <- $x19
	//DEBUG_VALUE: ufs_mq_tag_get:data <- $x19
	//DEBUG_VALUE: atomic_add:i <- 1
	//DEBUG_VALUE: atomic_add:v <- [DW_OP_plus_uconst 20, DW_OP_stack_value] $x8
	.loc	153 113 1 is_stmt 1     // kernel/arch/arm64/include/asm/atomic_ll_sc.h:113:1
	add	x8, x8, #20             // =20
.Ltmp94:
	//APP
	// atomic_add
	prfm	pstl1strm, [x8]
1:	ldxr	w9, [x8]
	add	w9, w9, #1
	stxr	w10, w9, [x8]
	cbnz	w10, 1b
	//NO_APP
.Ltmp95:
	//DEBUG_VALUE: atomic_add:tmp <- undef
	//DEBUG_VALUE: atomic_add:result <- undef
	.loc	1 359 16                // kernel/block/mas_blk_iosched_ufs_mq.c:359:16
	ldr	x8, [x19, #48]
	.loc	1 359 22 is_stmt 0      // kernel/block/mas_blk_iosched_ufs_mq.c:359:22
	ldr	x8, [x8, #304]
	.loc	1 359 28                // kernel/block/mas_blk_iosched_ufs_mq.c:359:28
	ldr	w8, [x8, #16]
.Ltmp96:
.LBB6_17:
	//DEBUG_VALUE: ufs_mq_tag_get:data <- $x19
	.loc	1 0 0                   // kernel/block/mas_blk_iosched_ufs_mq.c:0:0
	add	w0, w8, w0
.Ltmp97:
	//DEBUG_VALUE: ufs_tagset_get_reserved_tag:tag <- $w0
	b	.LBB6_5
.Ltmp98:
.LBB6_18:
	//DEBUG_VALUE: ufs_mq_tag_get:data <- $x19
	mov	w0, #-1
	b	.LBB6_5
.Lfunc_end6:
	.size	ufs_mq_tag_get, .Lfunc_end6-ufs_mq_tag_get
	.cfi_endproc
                                        // -- End function
	.section	.text.ufs_mq_tag_put,"ax",@progbits
	.hidden	ufs_mq_tag_put          // -- Begin function ufs_mq_tag_put
	.globl	ufs_mq_tag_put
	.p2align	2
	.type	ufs_mq_tag_put,@function
ufs_mq_tag_put:                         // @ufs_mq_tag_put
.Lfunc_begin7:
	.loc	1 516 0 is_stmt 1       // kernel/block/mas_blk_iosched_ufs_mq.c:516:0
	.cfi_startproc
// %bb.0:
	//DEBUG_VALUE: ufs_mq_tag_put:hctx <- $x0
	//DEBUG_VALUE: ufs_mq_tag_put:tag <- $w1
	//DEBUG_VALUE: ufs_mq_tag_put:rq <- $x2
	str	x19, [sp, #-32]!        // 8-byte Folded Spill
	stp	x29, x30, [sp, #16]     // 16-byte Folded Spill
	add	x29, sp, #16            // =16
	.cfi_def_cfa w29, 16
	.cfi_offset w30, -8
	.cfi_offset w29, -16
	.cfi_offset w19, -32
.Ltmp99:
	.loc	1 517 35 prologue_end   // kernel/block/mas_blk_iosched_ufs_mq.c:517:35
	ldr	x8, [x0, #304]
.Ltmp100:
	//DEBUG_VALUE: ufs_mq_tag_put:tags <- $x8
	.loc	1 0 35 is_stmt 0        // kernel/block/mas_blk_iosched_ufs_mq.c:0:35
	mov	x19, x0
.Ltmp101:
	//DEBUG_VALUE: ufs_mq_tag_put:hctx <- $x19
	.loc	1 519 6 is_stmt 1       // kernel/block/mas_blk_iosched_ufs_mq.c:519:6
	ldr	w9, [x8, #20]
.Ltmp102:
	//DEBUG_VALUE: ufs_mq_tag_put:tag <- $w1
	.loc	1 519 6 is_stmt 0       // kernel/block/mas_blk_iosched_ufs_mq.c:519:6
	cmp	w9, w1
	//DEBUG_VALUE: ufs_mq_tag_put:rq <- $x2
	b.ls	.LBB7_6
.Ltmp103:
// %bb.1:
	//DEBUG_VALUE: ufs_mq_tag_put:hctx <- $x19
	//DEBUG_VALUE: ufs_mq_tag_put:tags <- $x8
	//DEBUG_VALUE: ufs_mq_tag_put:rq <- $x2
	//DEBUG_VALUE: ufs_mq_tag_put:tag <- $w1
	.loc	1 525 13 is_stmt 1      // kernel/block/mas_blk_iosched_ufs_mq.c:525:13
	ldr	w9, [x8, #16]
.Ltmp104:
	.loc	1 525 13 is_stmt 0      // kernel/block/mas_blk_iosched_ufs_mq.c:525:13
	cmp	w9, w1
	b.ls	.LBB7_9
.Ltmp105:
// %bb.2:
	//DEBUG_VALUE: ufs_mq_tag_put:hctx <- $x19
	//DEBUG_VALUE: ufs_mq_tag_put:tags <- $x8
	//DEBUG_VALUE: ufs_mq_tag_put:rq <- $x2
	//DEBUG_VALUE: ufs_mq_tag_put:tag <- $w1
	.loc	1 533 16 is_stmt 1      // kernel/block/mas_blk_iosched_ufs_mq.c:533:16
	ldr	x9, [x2, #288]
	.loc	1 532 30                // kernel/block/mas_blk_iosched_ufs_mq.c:532:30
	add	x0, x8, #40             // =40
	.loc	1 533 33                // kernel/block/mas_blk_iosched_ufs_mq.c:533:33
	ldr	w2, [x9, #64]
.Ltmp106:
	.loc	1 532 3                 // kernel/block/mas_blk_iosched_ufs_mq.c:532:3
	bl	sbitmap_queue_clear
.Ltmp107:
	.loc	1 534 3                 // kernel/block/mas_blk_iosched_ufs_mq.c:534:3
	ldr	x8, [x19, #192]
.Ltmp108:
	//DEBUG_VALUE: get_sched_ds_lld:q <- $x8
	.loc	1 259 33                // kernel/block/mas_blk_iosched_ufs_mq.c:259:33
	ldr	x8, [x8, #1800]
.Ltmp109:
	//DEBUG_VALUE: get_sched_ds_lld:queuedata <- $x8
	.loc	1 261 9                 // kernel/block/mas_blk_iosched_ufs_mq.c:261:9
	cbz	x8, .LBB7_4
.Ltmp110:
// %bb.3:
	//DEBUG_VALUE: get_sched_ds_lld:queuedata <- $x8
	//DEBUG_VALUE: ufs_mq_tag_put:hctx <- $x19
	.loc	1 261 61 is_stmt 0      // kernel/block/mas_blk_iosched_ufs_mq.c:261:61
	ldr	x8, [x8, #280]
.Ltmp111:
.LBB7_4:
	//DEBUG_VALUE: ufs_mq_tag_put:hctx <- $x19
	//DEBUG_VALUE: atomic_sub:i <- 1
	//DEBUG_VALUE: atomic_sub:v <- [DW_OP_plus_uconst 16, DW_OP_stack_value] $x8
	.loc	153 114 1 is_stmt 1     // kernel/arch/arm64/include/asm/atomic_ll_sc.h:114:1
	add	x8, x8, #16             // =16
.Ltmp112:
	//APP
	// atomic_sub
	prfm	pstl1strm, [x8]
1:	ldxr	w9, [x8]
	sub	w9, w9, #1
	stxr	w10, w9, [x8]
	cbnz	w10, 1b
	//NO_APP
.Ltmp113:
	//DEBUG_VALUE: atomic_sub:tmp <- undef
	//DEBUG_VALUE: atomic_sub:result <- undef
.LBB7_5:
	//DEBUG_VALUE: ufs_mq_tag_put:hctx <- $x19
	.loc	1 536 2                 // kernel/block/mas_blk_iosched_ufs_mq.c:536:2
	ldp	x29, x30, [sp, #16]     // 16-byte Folded Reload
	mov	w0, wzr
	ldr	x19, [sp], #32          // 8-byte Folded Reload
.Ltmp114:
	ret
.LBB7_6:
.Ltmp115:
	//DEBUG_VALUE: ufs_mq_tag_put:hctx <- $x19
	//DEBUG_VALUE: ufs_mq_tag_put:tags <- $x8
	//DEBUG_VALUE: ufs_mq_tag_put:rq <- $x2
	//DEBUG_VALUE: ufs_mq_tag_put:tag <- $w1
	.loc	1 522 16                // kernel/block/mas_blk_iosched_ufs_mq.c:522:16
	ldr	x10, [x2, #288]
	.loc	1 520 30                // kernel/block/mas_blk_iosched_ufs_mq.c:520:30
	add	x0, x8, #152            // =152
	.loc	1 521 9                 // kernel/block/mas_blk_iosched_ufs_mq.c:521:9
	sub	w1, w1, w9
.Ltmp116:
	.loc	1 522 33                // kernel/block/mas_blk_iosched_ufs_mq.c:522:33
	ldr	w2, [x10, #64]
.Ltmp117:
	.loc	1 520 3                 // kernel/block/mas_blk_iosched_ufs_mq.c:520:3
	bl	sbitmap_queue_clear
.Ltmp118:
	.loc	1 523 3                 // kernel/block/mas_blk_iosched_ufs_mq.c:523:3
	ldr	x8, [x19, #192]
.Ltmp119:
	//DEBUG_VALUE: get_sched_ds_lld:q <- $x8
	.loc	1 259 33                // kernel/block/mas_blk_iosched_ufs_mq.c:259:33
	ldr	x8, [x8, #1800]
.Ltmp120:
	//DEBUG_VALUE: get_sched_ds_lld:queuedata <- $x8
	.loc	1 261 9                 // kernel/block/mas_blk_iosched_ufs_mq.c:261:9
	cbz	x8, .LBB7_8
.Ltmp121:
// %bb.7:
	//DEBUG_VALUE: get_sched_ds_lld:queuedata <- $x8
	//DEBUG_VALUE: ufs_mq_tag_put:hctx <- $x19
	.loc	1 261 61 is_stmt 0      // kernel/block/mas_blk_iosched_ufs_mq.c:261:61
	ldr	x8, [x8, #280]
.Ltmp122:
.LBB7_8:
	//DEBUG_VALUE: ufs_mq_tag_put:hctx <- $x19
	//DEBUG_VALUE: atomic_sub:i <- 1
	//DEBUG_VALUE: atomic_sub:v <- [DW_OP_plus_uconst 24, DW_OP_stack_value] $x8
	.loc	153 114 1 is_stmt 1     // kernel/arch/arm64/include/asm/atomic_ll_sc.h:114:1
	add	x8, x8, #24             // =24
.Ltmp123:
	//APP
	// atomic_sub
	prfm	pstl1strm, [x8]
1:	ldxr	w9, [x8]
	sub	w9, w9, #1
	stxr	w10, w9, [x8]
	cbnz	w10, 1b
	//NO_APP
.Ltmp124:
	//DEBUG_VALUE: atomic_sub:tmp <- undef
	//DEBUG_VALUE: atomic_sub:result <- undef
	.loc	153 0 1 is_stmt 0       // kernel/arch/arm64/include/asm/atomic_ll_sc.h:0:1
	b	.LBB7_5
.Ltmp125:
.LBB7_9:
	//DEBUG_VALUE: ufs_mq_tag_put:hctx <- $x19
	//DEBUG_VALUE: ufs_mq_tag_put:tags <- $x8
	//DEBUG_VALUE: ufs_mq_tag_put:rq <- $x2
	//DEBUG_VALUE: ufs_mq_tag_put:tag <- $w1
	.loc	1 528 16 is_stmt 1      // kernel/block/mas_blk_iosched_ufs_mq.c:528:16
	ldr	x10, [x2, #288]
	.loc	1 526 30                // kernel/block/mas_blk_iosched_ufs_mq.c:526:30
	add	x0, x8, #96             // =96
	.loc	1 527 9                 // kernel/block/mas_blk_iosched_ufs_mq.c:527:9
	sub	w1, w1, w9
.Ltmp126:
	.loc	1 528 33                // kernel/block/mas_blk_iosched_ufs_mq.c:528:33
	ldr	w2, [x10, #64]
.Ltmp127:
	.loc	1 526 3                 // kernel/block/mas_blk_iosched_ufs_mq.c:526:3
	bl	sbitmap_queue_clear
.Ltmp128:
	.loc	1 529 3                 // kernel/block/mas_blk_iosched_ufs_mq.c:529:3
	ldr	x8, [x19, #192]
.Ltmp129:
	//DEBUG_VALUE: get_sched_ds_lld:q <- $x8
	.loc	1 259 33                // kernel/block/mas_blk_iosched_ufs_mq.c:259:33
	ldr	x8, [x8, #1800]
.Ltmp130:
	//DEBUG_VALUE: get_sched_ds_lld:queuedata <- $x8
	.loc	1 261 9                 // kernel/block/mas_blk_iosched_ufs_mq.c:261:9
	cbz	x8, .LBB7_11
.Ltmp131:
// %bb.10:
	//DEBUG_VALUE: get_sched_ds_lld:queuedata <- $x8
	//DEBUG_VALUE: ufs_mq_tag_put:hctx <- $x19
	.loc	1 261 61 is_stmt 0      // kernel/block/mas_blk_iosched_ufs_mq.c:261:61
	ldr	x8, [x8, #280]
.Ltmp132:
.LBB7_11:
	//DEBUG_VALUE: ufs_mq_tag_put:hctx <- $x19
	//DEBUG_VALUE: atomic_sub:i <- 1
	//DEBUG_VALUE: atomic_sub:v <- [DW_OP_plus_uconst 20, DW_OP_stack_value] $x8
	.loc	153 114 1 is_stmt 1     // kernel/arch/arm64/include/asm/atomic_ll_sc.h:114:1
	add	x8, x8, #20             // =20
.Ltmp133:
	//APP
	// atomic_sub
	prfm	pstl1strm, [x8]
1:	ldxr	w9, [x8]
	sub	w9, w9, #1
	stxr	w10, w9, [x8]
	cbnz	w10, 1b
	//NO_APP
.Ltmp134:
	//DEBUG_VALUE: atomic_sub:tmp <- undef
	//DEBUG_VALUE: atomic_sub:result <- undef
	.loc	153 0 1 is_stmt 0       // kernel/arch/arm64/include/asm/atomic_ll_sc.h:0:1
	b	.LBB7_5
.Ltmp135:
.Lfunc_end7:
	.size	ufs_mq_tag_put, .Lfunc_end7-ufs_mq_tag_put
	.cfi_endproc
                                        // -- End function
	.section	.text.ufs_mq_sync_burst_check_timer_expire,"ax",@progbits
	.hidden	ufs_mq_sync_burst_check_timer_expire // -- Begin function ufs_mq_sync_burst_check_timer_expire
	.globl	ufs_mq_sync_burst_check_timer_expire
	.p2align	2
	.type	ufs_mq_sync_burst_check_timer_expire,@function
ufs_mq_sync_burst_check_timer_expire:   // @ufs_mq_sync_burst_check_timer_expire
.Lfunc_begin8:
	.loc	1 630 0 is_stmt 1       // kernel/block/mas_blk_iosched_ufs_mq.c:630:0
	.cfi_startproc
// %bb.0:
	//DEBUG_VALUE: ufs_mq_sync_burst_check_timer_expire:data <- $x0
	stp	x20, x19, [sp, #-32]!   // 16-byte Folded Spill
	stp	x29, x30, [sp, #16]     // 16-byte Folded Spill
	add	x29, sp, #16            // =16
	.cfi_def_cfa w29, 16
	.cfi_offset w30, -8
	.cfi_offset w29, -16
	.cfi_offset w19, -24
	.cfi_offset w20, -32
	mov	x19, x0
.Ltmp136:
	//DEBUG_VALUE: ufs_mq_sync_burst_check_timer_expire:restart_timer <- 0
	//DEBUG_VALUE: ufs_mq_sync_burst_check_timer_expire:data <- $x19
	.loc	1 632 22 prologue_end   // kernel/block/mas_blk_iosched_ufs_mq.c:632:22
	bl	ktime_get
.Ltmp137:
	.loc	154 183 2               // kernel/include/linux/compiler.h:183:2
	ldr	w8, [x19, #272]
.Ltmp138:
	.loc	1 636 2                 // kernel/block/mas_blk_iosched_ufs_mq.c:636:2
	sub	w8, w8, #1              // =1
	cmp	w8, #1                  // =1
.Ltmp139:
	//DEBUG_VALUE: __read_once_size:p <- [DW_OP_plus_uconst 272, DW_OP_stack_value] $x19
	//DEBUG_VALUE: __write_once_size:p <- [DW_OP_plus_uconst 272, DW_OP_stack_value] $x19
	//DEBUG_VALUE: __read_once_size:p <- [DW_OP_plus_uconst 272, DW_OP_stack_value] $x19
	//DEBUG_VALUE: __write_once_size:p <- [DW_OP_plus_uconst 272, DW_OP_stack_value] $x19
	//DEBUG_VALUE: __write_once_size:p <- [DW_OP_plus_uconst 272, DW_OP_stack_value] $x19
	//DEBUG_VALUE: __read_once_size:p <- [DW_OP_plus_uconst 272, DW_OP_stack_value] $x19
	//DEBUG_VALUE: __write_once_size:p <- [DW_OP_plus_uconst 272, DW_OP_stack_value] $x19
	//DEBUG_VALUE: __write_once_size:p <- [DW_OP_plus_uconst 272, DW_OP_stack_value] $x19
	//DEBUG_VALUE: __write_once_size:p <- [DW_OP_plus_uconst 272, DW_OP_stack_value] $x19
	//DEBUG_VALUE: __read_once_size:size <- 4
	//DEBUG_VALUE: __read_once_size:res <- undef
	//DEBUG_VALUE: ufs_mq_sync_burst_check_timer_expire:ds_lld <- $x19
	//DEBUG_VALUE: burst_mode_dur_g_than:ds_lld <- $x19
	//DEBUG_VALUE: io_submit_intrvl_l_than:ds_lld <- $x19
	//DEBUG_VALUE: ufs_mq_burst_mode_calc_at_sync_io_continue:ds_lld <- $x19
	//DEBUG_VALUE: ufs_mq_burst_mode_calc_at_sync_io_pause:ds_lld <- $x19
	//DEBUG_VALUE: last_sync_io_compl_g_than:ds_lld <- $x19
	//DEBUG_VALUE: io_submit_intrvl_g_than:ds_lld <- $x19
	//DEBUG_VALUE: last_sync_io_compl_g_than:ds_lld <- $x19
	//DEBUG_VALUE: ufs_mq_sync_burst_check_timer_expire:now_ktime <- $x0
	//DEBUG_VALUE: burst_mode_dur_g_than:base <- $x0
	//DEBUG_VALUE: ktime_after:cmp1 <- $x0
	//DEBUG_VALUE: ktime_compare:cmp1 <- $x0
	//DEBUG_VALUE: io_submit_intrvl_l_than:base <- $x0
	//DEBUG_VALUE: ktime_before:cmp1 <- $x0
	//DEBUG_VALUE: ktime_compare:cmp1 <- $x0
	b.hi	.LBB8_3
.Ltmp140:
// %bb.1:
	//DEBUG_VALUE: ktime_compare:cmp1 <- $x0
	//DEBUG_VALUE: ktime_after:cmp1 <- $x0
	//DEBUG_VALUE: burst_mode_dur_g_than:base <- $x0
	//DEBUG_VALUE: ufs_mq_sync_burst_check_timer_expire:now_ktime <- $x0
	//DEBUG_VALUE: burst_mode_dur_g_than:ds_lld <- $x19
	//DEBUG_VALUE: ufs_mq_sync_burst_check_timer_expire:ds_lld <- $x19
	//DEBUG_VALUE: ufs_mq_sync_burst_check_timer_expire:data <- $x19
	//DEBUG_VALUE: burst_mode_dur_g_than:ms <- 500
	.loc	1 576 30                // kernel/block/mas_blk_iosched_ufs_mq.c:576:30
	ldr	x8, [x19, #192]
	mov	w9, #25856
	movk	w9, #7629, lsl #16
.Ltmp141:
	//DEBUG_VALUE: ktime_add_ms:msec <- 500
	//DEBUG_VALUE: ktime_add_ms:kt <- $x8
	.loc	58 200 9                // kernel/include/linux/ktime.h:200:9
	add	x8, x8, x9
.Ltmp142:
	//DEBUG_VALUE: ktime_compare:cmp2 <- $x8
	//DEBUG_VALUE: ktime_after:cmp2 <- $x8
	.loc	1 639 7                 // kernel/block/mas_blk_iosched_ufs_mq.c:639:7
	cmp	x8, x0
	b.ge	.LBB8_3
.Ltmp143:
// %bb.2:
	//DEBUG_VALUE: ufs_mq_sync_burst_check_timer_expire:now_ktime <- $x0
	//DEBUG_VALUE: ufs_mq_sync_burst_check_timer_expire:ds_lld <- $x19
	//DEBUG_VALUE: ufs_mq_sync_burst_check_timer_expire:data <- $x19
	//DEBUG_VALUE: __write_once_size:res <- undef
	.loc	1 0 7 is_stmt 0         // kernel/block/mas_blk_iosched_ufs_mq.c:0:7
	orr	w8, wzr, #0x3
.Ltmp144:
	//DEBUG_VALUE: __write_once_size:size <- 4
	.loc	154 209 31 is_stmt 1    // kernel/include/linux/compiler.h:209:31
	str	w8, [x19, #272]
.Ltmp145:
.LBB8_3:
	//DEBUG_VALUE: ufs_mq_sync_burst_check_timer_expire:now_ktime <- $x0
	//DEBUG_VALUE: ufs_mq_sync_burst_check_timer_expire:ds_lld <- $x19
	//DEBUG_VALUE: ufs_mq_sync_burst_check_timer_expire:data <- $x19
	//DEBUG_VALUE: io_submit_intrvl_l_than:ms <- 10
	.loc	1 544 30                // kernel/block/mas_blk_iosched_ufs_mq.c:544:30
	ldr	x8, [x19, #184]
	mov	w20, #38528
	movk	w20, #152, lsl #16
.Ltmp146:
	//DEBUG_VALUE: ktime_add_ms:msec <- 10
	//DEBUG_VALUE: ktime_add_ms:kt <- $x8
	.loc	58 200 9                // kernel/include/linux/ktime.h:200:9
	add	x8, x8, x20
.Ltmp147:
	//DEBUG_VALUE: ktime_compare:cmp2 <- $x8
	//DEBUG_VALUE: ktime_before:cmp2 <- $x8
	.loc	1 647 6                 // kernel/block/mas_blk_iosched_ufs_mq.c:647:6
	cmp	x8, x0
	b.le	.LBB8_7
.Ltmp148:
// %bb.4:
	//DEBUG_VALUE: ufs_mq_sync_burst_check_timer_expire:now_ktime <- $x0
	//DEBUG_VALUE: ufs_mq_sync_burst_check_timer_expire:ds_lld <- $x19
	//DEBUG_VALUE: ufs_mq_sync_burst_check_timer_expire:data <- $x19
	//DEBUG_VALUE: __read_once_size:res <- undef
	//DEBUG_VALUE: __read_once_size:size <- 4
	.loc	154 183 2               // kernel/include/linux/compiler.h:183:2
	ldr	w8, [x19, #272]
.Ltmp149:
	.loc	1 582 2                 // kernel/block/mas_blk_iosched_ufs_mq.c:582:2
	cmp	w8, #3                  // =3
	b.eq	.LBB8_11
.Ltmp150:
// %bb.5:
	//DEBUG_VALUE: ufs_mq_sync_burst_check_timer_expire:now_ktime <- $x0
	//DEBUG_VALUE: ufs_mq_sync_burst_check_timer_expire:ds_lld <- $x19
	//DEBUG_VALUE: ufs_mq_sync_burst_check_timer_expire:data <- $x19
	cmp	w8, #1                  // =1
	b.ne	.LBB8_18
.Ltmp151:
// %bb.6:
	//DEBUG_VALUE: ufs_mq_sync_burst_check_timer_expire:now_ktime <- $x0
	//DEBUG_VALUE: ufs_mq_sync_burst_check_timer_expire:ds_lld <- $x19
	//DEBUG_VALUE: ufs_mq_sync_burst_check_timer_expire:data <- $x19
	//DEBUG_VALUE: __write_once_size:res <- undef
	.loc	1 0 2 is_stmt 0         // kernel/block/mas_blk_iosched_ufs_mq.c:0:2
	orr	w8, wzr, #0x2
	b	.LBB8_17
.Ltmp152:
.LBB8_7:
	//DEBUG_VALUE: ufs_mq_sync_burst_check_timer_expire:now_ktime <- $x0
	//DEBUG_VALUE: ufs_mq_sync_burst_check_timer_expire:ds_lld <- $x19
	//DEBUG_VALUE: ufs_mq_sync_burst_check_timer_expire:data <- $x19
	//DEBUG_VALUE: ufs_mq_burst_mode_calc_at_sync_io_pause:burst_mode <- 1
	.loc	1 600 16 is_stmt 1      // kernel/block/mas_blk_iosched_ufs_mq.c:600:16
	bl	ktime_get
.Ltmp153:
	.loc	154 183 2               // kernel/include/linux/compiler.h:183:2
	ldr	w8, [x19, #272]
.Ltmp154:
	.loc	1 602 2                 // kernel/block/mas_blk_iosched_ufs_mq.c:602:2
	cmp	w8, #3                  // =3
.Ltmp155:
	//DEBUG_VALUE: __read_once_size:size <- 4
	//DEBUG_VALUE: __read_once_size:res <- undef
	//DEBUG_VALUE: ufs_mq_burst_mode_calc_at_sync_io_pause:now <- $x0
	//DEBUG_VALUE: last_sync_io_compl_g_than:base <- $x0
	//DEBUG_VALUE: ktime_after:cmp1 <- $x0
	//DEBUG_VALUE: ktime_compare:cmp1 <- $x0
	//DEBUG_VALUE: io_submit_intrvl_g_than:base <- $x0
	//DEBUG_VALUE: ktime_after:cmp1 <- $x0
	//DEBUG_VALUE: ktime_compare:cmp1 <- $x0
	//DEBUG_VALUE: last_sync_io_compl_g_than:base <- $x0
	//DEBUG_VALUE: ktime_after:cmp1 <- $x0
	//DEBUG_VALUE: ktime_compare:cmp1 <- $x0
	b.eq	.LBB8_12
.Ltmp156:
// %bb.8:
	//DEBUG_VALUE: ufs_mq_burst_mode_calc_at_sync_io_pause:now <- $x0
	//DEBUG_VALUE: ufs_mq_sync_burst_check_timer_expire:ds_lld <- $x19
	//DEBUG_VALUE: ufs_mq_sync_burst_check_timer_expire:data <- $x19
	cmp	w8, #2                  // =2
	b.eq	.LBB8_15
.Ltmp157:
// %bb.9:
	//DEBUG_VALUE: ufs_mq_burst_mode_calc_at_sync_io_pause:now <- $x0
	//DEBUG_VALUE: ufs_mq_sync_burst_check_timer_expire:ds_lld <- $x19
	//DEBUG_VALUE: ufs_mq_sync_burst_check_timer_expire:data <- $x19
	cmp	w8, #1                  // =1
	b.ne	.LBB8_18
.Ltmp158:
// %bb.10:
	//DEBUG_VALUE: ufs_mq_burst_mode_calc_at_sync_io_pause:now <- $x0
	//DEBUG_VALUE: ufs_mq_sync_burst_check_timer_expire:ds_lld <- $x19
	//DEBUG_VALUE: ufs_mq_sync_burst_check_timer_expire:data <- $x19
	//DEBUG_VALUE: last_sync_io_compl_g_than:ms <- 30
	.loc	1 560 30                // kernel/block/mas_blk_iosched_ufs_mq.c:560:30
	ldr	x8, [x19, #200]
	mov	w9, #50048
	movk	w9, #457, lsl #16
	b	.LBB8_13
.Ltmp159:
.LBB8_11:
	//DEBUG_VALUE: ufs_mq_sync_burst_check_timer_expire:now_ktime <- $x0
	//DEBUG_VALUE: ufs_mq_sync_burst_check_timer_expire:ds_lld <- $x19
	//DEBUG_VALUE: ufs_mq_sync_burst_check_timer_expire:data <- $x19
	//DEBUG_VALUE: __read_once_size:res <- undef
	//DEBUG_VALUE: __read_once_size:size <- 4
	//DEBUG_VALUE: __read_once_size:p <- [DW_OP_plus_uconst 20, DW_OP_stack_value] $x19
	.loc	154 183 2               // kernel/include/linux/compiler.h:183:2
	ldr	w8, [x19, #20]
	cbnz	w8, .LBB8_18
	b	.LBB8_16
.Ltmp160:
.LBB8_12:
	//DEBUG_VALUE: last_sync_io_compl_g_than:base <- $x0
	//DEBUG_VALUE: ufs_mq_burst_mode_calc_at_sync_io_pause:now <- $x0
	//DEBUG_VALUE: ufs_mq_sync_burst_check_timer_expire:ds_lld <- $x19
	//DEBUG_VALUE: ufs_mq_sync_burst_check_timer_expire:data <- $x19
	//DEBUG_VALUE: last_sync_io_compl_g_than:ms <- 20
	.loc	1 560 30                // kernel/block/mas_blk_iosched_ufs_mq.c:560:30
	ldr	x8, [x19, #200]
	mov	w9, #11520
	movk	w9, #305, lsl #16
.Ltmp161:
.LBB8_13:
	//DEBUG_VALUE: ufs_mq_burst_mode_calc_at_sync_io_pause:now <- $x0
	//DEBUG_VALUE: ufs_mq_sync_burst_check_timer_expire:ds_lld <- $x19
	//DEBUG_VALUE: ufs_mq_sync_burst_check_timer_expire:data <- $x19
	//DEBUG_VALUE: ktime_add_ms:msec <- 30
	//DEBUG_VALUE: ktime_add_ms:kt <- $x8
	.loc	1 0 0 is_stmt 0         // kernel/block/mas_blk_iosched_ufs_mq.c:0:0
	add	x8, x8, x9
.Ltmp162:
	//DEBUG_VALUE: ktime_compare:cmp2 <- $x8
	//DEBUG_VALUE: ktime_after:cmp2 <- $x8
	cmp	x8, x0
	b.ge	.LBB8_18
.Ltmp163:
// %bb.14:
	//DEBUG_VALUE: ufs_mq_burst_mode_calc_at_sync_io_pause:now <- $x0
	//DEBUG_VALUE: ufs_mq_sync_burst_check_timer_expire:ds_lld <- $x19
	//DEBUG_VALUE: ufs_mq_sync_burst_check_timer_expire:data <- $x19
	//DEBUG_VALUE: __write_once_size:res <- undef
	//DEBUG_VALUE: __write_once_size:size <- 4
	str	wzr, [x19, #272]
.Ltmp164:
	//DEBUG_VALUE: ufs_mq_burst_mode_calc_at_sync_io_pause:burst_mode <- 0
	b	.LBB8_19
.Ltmp165:
.LBB8_15:
	//DEBUG_VALUE: ufs_mq_burst_mode_calc_at_sync_io_pause:now <- $x0
	//DEBUG_VALUE: ufs_mq_sync_burst_check_timer_expire:ds_lld <- $x19
	//DEBUG_VALUE: ufs_mq_sync_burst_check_timer_expire:data <- $x19
	//DEBUG_VALUE: io_submit_intrvl_g_than:ms <- 10
	.loc	1 552 30 is_stmt 1      // kernel/block/mas_blk_iosched_ufs_mq.c:552:30
	ldr	x8, [x19, #184]
.Ltmp166:
	//DEBUG_VALUE: ktime_add_ms:msec <- 10
	//DEBUG_VALUE: ktime_add_ms:kt <- $x8
	.loc	58 200 9                // kernel/include/linux/ktime.h:200:9
	add	x8, x8, x20
.Ltmp167:
	//DEBUG_VALUE: ktime_compare:cmp2 <- $x8
	//DEBUG_VALUE: ktime_after:cmp2 <- $x8
	.loc	1 611 7                 // kernel/block/mas_blk_iosched_ufs_mq.c:611:7
	cmp	x8, x0
	b.ge	.LBB8_18
.Ltmp168:
.LBB8_16:
	//DEBUG_VALUE: ufs_mq_sync_burst_check_timer_expire:ds_lld <- $x19
	//DEBUG_VALUE: ufs_mq_sync_burst_check_timer_expire:data <- $x19
	//DEBUG_VALUE: __write_once_size:res <- undef
	.loc	1 0 7 is_stmt 0         // kernel/block/mas_blk_iosched_ufs_mq.c:0:7
	orr	w8, wzr, #0x1
.Ltmp169:
.LBB8_17:
	//DEBUG_VALUE: ufs_mq_sync_burst_check_timer_expire:ds_lld <- $x19
	//DEBUG_VALUE: ufs_mq_sync_burst_check_timer_expire:data <- $x19
	//DEBUG_VALUE: __write_once_size:size <- 4
	str	w8, [x19, #272]
.Ltmp170:
.LBB8_18:
	//DEBUG_VALUE: ufs_mq_sync_burst_check_timer_expire:ds_lld <- $x19
	//DEBUG_VALUE: ufs_mq_sync_burst_check_timer_expire:data <- $x19
	.loc	1 656 4 is_stmt 1       // kernel/block/mas_blk_iosched_ufs_mq.c:656:4
	adrp	x8, jiffies
	ldr	x8, [x8, :lo12:jiffies]
	.loc	1 655 22                // kernel/block/mas_blk_iosched_ufs_mq.c:655:22
	add	x0, x19, #224           // =224
	.loc	1 656 12                // kernel/block/mas_blk_iosched_ufs_mq.c:656:12
	add	x1, x8, #3              // =3
	.loc	1 655 3                 // kernel/block/mas_blk_iosched_ufs_mq.c:655:3
	bl	mod_timer
.Ltmp171:
.LBB8_19:
	//DEBUG_VALUE: ufs_mq_sync_burst_check_timer_expire:ds_lld <- $x19
	//DEBUG_VALUE: ufs_mq_sync_burst_check_timer_expire:data <- $x19
	.loc	1 657 1                 // kernel/block/mas_blk_iosched_ufs_mq.c:657:1
	ldp	x29, x30, [sp, #16]     // 16-byte Folded Reload
	ldp	x20, x19, [sp], #32     // 16-byte Folded Reload
.Ltmp172:
	ret
.Ltmp173:
.Lfunc_end8:
	.size	ufs_mq_sync_burst_check_timer_expire, .Lfunc_end8-ufs_mq_sync_burst_check_timer_expire
	.cfi_endproc
                                        // -- End function
	.section	.text.ufs_mq_dump_request,"ax",@progbits
	.hidden	ufs_mq_dump_request     // -- Begin function ufs_mq_dump_request
	.globl	ufs_mq_dump_request
	.p2align	2
	.type	ufs_mq_dump_request,@function
ufs_mq_dump_request:                    // @ufs_mq_dump_request
.Lfunc_begin9:
	.loc	1 708 0                 // kernel/block/mas_blk_iosched_ufs_mq.c:708:0
	.cfi_startproc
// %bb.0:
	//DEBUG_VALUE: ufs_mq_dump_request:q <- $x0
	//DEBUG_VALUE: ufs_mq_dump_request:s <- $w1
	stp	x24, x23, [sp, #-64]!   // 16-byte Folded Spill
	stp	x22, x21, [sp, #16]     // 16-byte Folded Spill
	stp	x20, x19, [sp, #32]     // 16-byte Folded Spill
	stp	x29, x30, [sp, #48]     // 16-byte Folded Spill
	add	x29, sp, #48            // =48
	.cfi_def_cfa w29, 16
	.cfi_offset w30, -8
	.cfi_offset w29, -16
	.cfi_offset w19, -24
	.cfi_offset w20, -32
	.cfi_offset w21, -40
	.cfi_offset w22, -48
	.cfi_offset w23, -56
	.cfi_offset w24, -64
.Ltmp174:
	//DEBUG_VALUE: ufs_mq_dump_request:pos <- 0
	.loc	1 711 44 prologue_end   // kernel/block/mas_blk_iosched_ufs_mq.c:711:44
	ldr	x22, [x0, #1800]
.Ltmp175:
	//DEBUG_VALUE: ufs_mq_dump_request:ds_lld <- 0
	//DEBUG_VALUE: ufs_mq_dump_request:sched_ds <- $x22
	//DEBUG_VALUE: ufs_mq_dump_dispatch_work_stat:work <- [DW_OP_plus_uconst 8, DW_OP_stack_value] $x22
	//DEBUG_VALUE: ufs_mq_dump_dispatch_work_stat:work <- [DW_OP_plus_uconst 136, DW_OP_stack_value] $x22
	.loc	1 714 16                // kernel/block/mas_blk_iosched_ufs_mq.c:714:16
	cbz	x22, .LBB9_19
.Ltmp176:
// %bb.1:
	//DEBUG_VALUE: ufs_mq_dump_request:sched_ds <- $x22
	//DEBUG_VALUE: ufs_mq_dump_request:s <- $w1
	//DEBUG_VALUE: ufs_mq_dump_request:q <- $x0
	.loc	1 714 31 is_stmt 0      // kernel/block/mas_blk_iosched_ufs_mq.c:714:31
	ldr	x23, [x22, #280]
.Ltmp177:
	//DEBUG_VALUE: ufs_mq_dump_request:ds_lld <- $x23
	.loc	1 714 6                 // kernel/block/mas_blk_iosched_ufs_mq.c:714:6
	cbz	x23, .LBB9_19
.Ltmp178:
// %bb.2:
	//DEBUG_VALUE: ufs_mq_dump_request:ds_lld <- $x23
	//DEBUG_VALUE: ufs_mq_dump_request:sched_ds <- $x22
	//DEBUG_VALUE: ufs_mq_dump_request:s <- $w1
	//DEBUG_VALUE: ufs_mq_dump_request:q <- $x0
	.loc	154 183 2 is_stmt 1     // kernel/include/linux/compiler.h:183:2
	mov	x24, x23
	ldr	x8, [x24, #72]!
	mov	x19, x0
.Ltmp179:
	//DEBUG_VALUE: ufs_mq_dump_request:q <- $x19
	.loc	154 0 2 is_stmt 0       // kernel/include/linux/compiler.h:0:2
	mov	w20, w1
.Ltmp180:
	//DEBUG_VALUE: ufs_mq_dump_request:s <- $w20
	//DEBUG_VALUE: __read_once_size:res <- undef
	//DEBUG_VALUE: __read_once_size:size <- 8
	//DEBUG_VALUE: list_empty:head <- undef
	//DEBUG_VALUE: __read_once_size:p <- undef
	.loc	1 718 6 is_stmt 1       // kernel/block/mas_blk_iosched_ufs_mq.c:718:6
	cmp	x24, x8
	b.eq	.LBB9_7
.Ltmp181:
// %bb.3:
	//DEBUG_VALUE: ufs_mq_dump_request:s <- $w20
	//DEBUG_VALUE: ufs_mq_dump_request:q <- $x19
	//DEBUG_VALUE: ufs_mq_dump_request:ds_lld <- $x23
	//DEBUG_VALUE: ufs_mq_dump_request:sched_ds <- $x22
	.loc	1 719 3                 // kernel/block/mas_blk_iosched_ufs_mq.c:719:3
	adrp	x0, .L.str
	add	x0, x0, :lo12:.L.str
	bl	printk
.Ltmp182:
	//DEBUG_VALUE: __mptr <- undef
	.loc	1 0 0 is_stmt 0         // kernel/block/mas_blk_iosched_ufs_mq.c:0:0
	ldr	x21, [x24]
.Ltmp183:
	//DEBUG_VALUE: ufs_mq_dump_request:pos <- $x21
	.loc	1 720 3 is_stmt 1       // kernel/block/mas_blk_iosched_ufs_mq.c:720:3
	cmp	x21, x24
	b.ne	.LBB9_5
	b	.LBB9_7
.Ltmp184:
.LBB9_4:                                //   in Loop: Header=BB9_5 Depth=1
	//DEBUG_VALUE: ufs_mq_dump_request:pos <- $x21
	//DEBUG_VALUE: ufs_mq_dump_request:s <- $w20
	//DEBUG_VALUE: ufs_mq_dump_request:q <- $x19
	//DEBUG_VALUE: ufs_mq_dump_request:ds_lld <- $x23
	//DEBUG_VALUE: ufs_mq_dump_request:sched_ds <- $x22
	//DEBUG_VALUE: __mptr <- undef
	.loc	1 0 0 is_stmt 0         // kernel/block/mas_blk_iosched_ufs_mq.c:0:0
	ldr	x21, [x21]
.Ltmp185:
	//DEBUG_VALUE: ufs_mq_dump_request:pos <- $x21
	.loc	1 720 3                 // kernel/block/mas_blk_iosched_ufs_mq.c:720:3
	cmp	x21, x24
	b.eq	.LBB9_7
.Ltmp186:
.LBB9_5:                                // =>This Inner Loop Header: Depth=1
	//DEBUG_VALUE: ufs_mq_dump_request:pos <- $x21
	//DEBUG_VALUE: ufs_mq_dump_request:s <- $w20
	//DEBUG_VALUE: ufs_mq_dump_request:q <- $x19
	//DEBUG_VALUE: ufs_mq_dump_request:ds_lld <- $x23
	//DEBUG_VALUE: ufs_mq_dump_request:sched_ds <- $x22
	.loc	1 721 13 is_stmt 1      // kernel/block/mas_blk_iosched_ufs_mq.c:721:13
	ldr	x8, [x21, #64]
.Ltmp187:
	.loc	1 721 8 is_stmt 0       // kernel/block/mas_blk_iosched_ufs_mq.c:721:8
	cmp	x8, x19
	b.ne	.LBB9_4
.Ltmp188:
// %bb.6:                               //   in Loop: Header=BB9_5 Depth=1
	//DEBUG_VALUE: ufs_mq_dump_request:pos <- $x21
	//DEBUG_VALUE: ufs_mq_dump_request:s <- $w20
	//DEBUG_VALUE: ufs_mq_dump_request:q <- $x19
	//DEBUG_VALUE: ufs_mq_dump_request:ds_lld <- $x23
	//DEBUG_VALUE: ufs_mq_dump_request:sched_ds <- $x22
	.loc	1 722 5 is_stmt 1       // kernel/block/mas_blk_iosched_ufs_mq.c:722:5
	mov	x0, x21
	mov	w1, w20
	bl	mas_blk_dump_request
	b	.LBB9_4
.Ltmp189:
.LBB9_7:
	//DEBUG_VALUE: ufs_mq_dump_request:s <- $w20
	//DEBUG_VALUE: ufs_mq_dump_request:q <- $x19
	//DEBUG_VALUE: ufs_mq_dump_request:ds_lld <- $x23
	//DEBUG_VALUE: ufs_mq_dump_request:sched_ds <- $x22
	//DEBUG_VALUE: __read_once_size:res <- undef
	//DEBUG_VALUE: __read_once_size:size <- 8
	//DEBUG_VALUE: list_empty:head <- undef
	//DEBUG_VALUE: __read_once_size:p <- undef
	.loc	154 183 2               // kernel/include/linux/compiler.h:183:2
	mov	x24, x23
	ldr	x8, [x24, #96]!
.Ltmp190:
	.loc	1 724 6                 // kernel/block/mas_blk_iosched_ufs_mq.c:724:6
	cmp	x24, x8
	b.eq	.LBB9_13
.Ltmp191:
// %bb.8:
	//DEBUG_VALUE: ufs_mq_dump_request:s <- $w20
	//DEBUG_VALUE: ufs_mq_dump_request:q <- $x19
	//DEBUG_VALUE: ufs_mq_dump_request:ds_lld <- $x23
	//DEBUG_VALUE: ufs_mq_dump_request:sched_ds <- $x22
	.loc	1 725 3                 // kernel/block/mas_blk_iosched_ufs_mq.c:725:3
	adrp	x0, .L.str.1
	add	x0, x0, :lo12:.L.str.1
	bl	printk
.Ltmp192:
	//DEBUG_VALUE: __mptr <- undef
	.loc	1 0 0 is_stmt 0         // kernel/block/mas_blk_iosched_ufs_mq.c:0:0
	ldr	x21, [x24]
.Ltmp193:
	//DEBUG_VALUE: ufs_mq_dump_request:pos <- $x21
	.loc	1 726 3 is_stmt 1       // kernel/block/mas_blk_iosched_ufs_mq.c:726:3
	cmp	x21, x24
	b.ne	.LBB9_10
	b	.LBB9_12
.Ltmp194:
.LBB9_9:                                //   in Loop: Header=BB9_10 Depth=1
	//DEBUG_VALUE: ufs_mq_dump_request:pos <- $x21
	//DEBUG_VALUE: ufs_mq_dump_request:s <- $w20
	//DEBUG_VALUE: ufs_mq_dump_request:q <- $x19
	//DEBUG_VALUE: ufs_mq_dump_request:ds_lld <- $x23
	//DEBUG_VALUE: ufs_mq_dump_request:sched_ds <- $x22
	//DEBUG_VALUE: __mptr <- undef
	.loc	1 0 0 is_stmt 0         // kernel/block/mas_blk_iosched_ufs_mq.c:0:0
	ldr	x21, [x21]
.Ltmp195:
	//DEBUG_VALUE: ufs_mq_dump_request:pos <- $x21
	.loc	1 726 3                 // kernel/block/mas_blk_iosched_ufs_mq.c:726:3
	cmp	x21, x24
	b.eq	.LBB9_12
.Ltmp196:
.LBB9_10:                               // =>This Inner Loop Header: Depth=1
	//DEBUG_VALUE: ufs_mq_dump_request:pos <- $x21
	//DEBUG_VALUE: ufs_mq_dump_request:s <- $w20
	//DEBUG_VALUE: ufs_mq_dump_request:q <- $x19
	//DEBUG_VALUE: ufs_mq_dump_request:ds_lld <- $x23
	//DEBUG_VALUE: ufs_mq_dump_request:sched_ds <- $x22
	.loc	1 727 13 is_stmt 1      // kernel/block/mas_blk_iosched_ufs_mq.c:727:13
	ldr	x8, [x21, #64]
.Ltmp197:
	.loc	1 727 8 is_stmt 0       // kernel/block/mas_blk_iosched_ufs_mq.c:727:8
	cmp	x8, x19
	b.ne	.LBB9_9
.Ltmp198:
// %bb.11:                              //   in Loop: Header=BB9_10 Depth=1
	//DEBUG_VALUE: ufs_mq_dump_request:pos <- $x21
	//DEBUG_VALUE: ufs_mq_dump_request:s <- $w20
	//DEBUG_VALUE: ufs_mq_dump_request:q <- $x19
	//DEBUG_VALUE: ufs_mq_dump_request:ds_lld <- $x23
	//DEBUG_VALUE: ufs_mq_dump_request:sched_ds <- $x22
	.loc	1 728 5 is_stmt 1       // kernel/block/mas_blk_iosched_ufs_mq.c:728:5
	mov	x0, x21
	mov	w1, w20
	bl	mas_blk_dump_request
	b	.LBB9_9
.Ltmp199:
.LBB9_12:
	//DEBUG_VALUE: ufs_mq_dump_request:pos <- $x21
	//DEBUG_VALUE: ufs_mq_dump_request:s <- $w20
	//DEBUG_VALUE: ufs_mq_dump_request:q <- $x19
	//DEBUG_VALUE: ufs_mq_dump_request:ds_lld <- $x23
	//DEBUG_VALUE: ufs_mq_dump_request:sched_ds <- $x22
	.loc	1 691 2                 // kernel/block/mas_blk_iosched_ufs_mq.c:691:2
	ldp	x1, x2, [x22, #8]
	ldr	x3, [x22, #24]
	adrp	x0, .L.str.9
	add	x0, x0, :lo12:.L.str.9
	bl	printk
.Ltmp200:
.LBB9_13:
	//DEBUG_VALUE: ufs_mq_dump_request:s <- $w20
	//DEBUG_VALUE: ufs_mq_dump_request:q <- $x19
	//DEBUG_VALUE: ufs_mq_dump_request:ds_lld <- $x23
	//DEBUG_VALUE: ufs_mq_dump_request:sched_ds <- $x22
	//DEBUG_VALUE: __read_once_size:res <- undef
	//DEBUG_VALUE: __read_once_size:size <- 8
	//DEBUG_VALUE: list_empty:head <- $x23
	//DEBUG_VALUE: __read_once_size:p <- $x23
	.loc	154 183 2               // kernel/include/linux/compiler.h:183:2
	ldr	x8, [x23, #152]!
.Ltmp201:
	.loc	1 732 6                 // kernel/block/mas_blk_iosched_ufs_mq.c:732:6
	cmp	x23, x8
	b.eq	.LBB9_19
.Ltmp202:
// %bb.14:
	//DEBUG_VALUE: ufs_mq_dump_request:s <- $w20
	//DEBUG_VALUE: ufs_mq_dump_request:q <- $x19
	//DEBUG_VALUE: ufs_mq_dump_request:sched_ds <- $x22
	.loc	1 733 3                 // kernel/block/mas_blk_iosched_ufs_mq.c:733:3
	adrp	x0, .L.str.2
	add	x0, x0, :lo12:.L.str.2
	bl	printk
.Ltmp203:
	//DEBUG_VALUE: __mptr <- undef
	.loc	1 0 0 is_stmt 0         // kernel/block/mas_blk_iosched_ufs_mq.c:0:0
	ldr	x21, [x23]
.Ltmp204:
	//DEBUG_VALUE: ufs_mq_dump_request:pos <- [DW_OP_constu 432, DW_OP_minus, DW_OP_stack_value] $x21
	.loc	1 741 3 is_stmt 1       // kernel/block/mas_blk_iosched_ufs_mq.c:741:3
	cmp	x23, x21
	b.ne	.LBB9_16
	b	.LBB9_18
.Ltmp205:
.LBB9_15:                               //   in Loop: Header=BB9_16 Depth=1
	//DEBUG_VALUE: ufs_mq_dump_request:pos <- $x21
	//DEBUG_VALUE: ufs_mq_dump_request:s <- $w20
	//DEBUG_VALUE: ufs_mq_dump_request:q <- $x19
	//DEBUG_VALUE: ufs_mq_dump_request:sched_ds <- $x22
	//DEBUG_VALUE: __mptr <- undef
	.loc	1 0 0 is_stmt 0         // kernel/block/mas_blk_iosched_ufs_mq.c:0:0
	ldr	x21, [x21]
.Ltmp206:
	//DEBUG_VALUE: ufs_mq_dump_request:pos <- [DW_OP_constu 432, DW_OP_minus, DW_OP_stack_value] $x21
	.loc	1 741 3                 // kernel/block/mas_blk_iosched_ufs_mq.c:741:3
	cmp	x23, x21
	b.eq	.LBB9_18
.Ltmp207:
.LBB9_16:                               // =>This Inner Loop Header: Depth=1
	//DEBUG_VALUE: ufs_mq_dump_request:pos <- $x21
	//DEBUG_VALUE: ufs_mq_dump_request:s <- $w20
	//DEBUG_VALUE: ufs_mq_dump_request:q <- $x19
	//DEBUG_VALUE: ufs_mq_dump_request:sched_ds <- $x22
	.loc	1 743 13 is_stmt 1      // kernel/block/mas_blk_iosched_ufs_mq.c:743:13
	sub	x8, x21, #368           // =368
	ldr	x8, [x8]
.Ltmp208:
	.loc	1 743 8 is_stmt 0       // kernel/block/mas_blk_iosched_ufs_mq.c:743:8
	cmp	x8, x19
	b.ne	.LBB9_15
.Ltmp209:
// %bb.17:                              //   in Loop: Header=BB9_16 Depth=1
	//DEBUG_VALUE: ufs_mq_dump_request:pos <- $x21
	//DEBUG_VALUE: ufs_mq_dump_request:s <- $w20
	//DEBUG_VALUE: ufs_mq_dump_request:q <- $x19
	//DEBUG_VALUE: ufs_mq_dump_request:sched_ds <- $x22
	.loc	1 0 0                   // kernel/block/mas_blk_iosched_ufs_mq.c:0:0
	sub	x0, x21, #432           // =432
.Ltmp210:
	.loc	1 744 5 is_stmt 1       // kernel/block/mas_blk_iosched_ufs_mq.c:744:5
	mov	w1, w20
	bl	mas_blk_dump_request
	b	.LBB9_15
.Ltmp211:
.LBB9_18:
	//DEBUG_VALUE: ufs_mq_dump_request:pos <- $x21
	//DEBUG_VALUE: ufs_mq_dump_request:s <- $w20
	//DEBUG_VALUE: ufs_mq_dump_request:q <- $x19
	//DEBUG_VALUE: ufs_mq_dump_request:sched_ds <- $x22
	.loc	1 691 2                 // kernel/block/mas_blk_iosched_ufs_mq.c:691:2
	ldp	x1, x2, [x22, #136]
	ldr	x3, [x22, #152]
	adrp	x0, .L.str.9
	add	x0, x0, :lo12:.L.str.9
	bl	printk
.Ltmp212:
.LBB9_19:
	//DEBUG_VALUE: ufs_mq_dump_request:sched_ds <- $x22
	.loc	1 747 1                 // kernel/block/mas_blk_iosched_ufs_mq.c:747:1
	ldp	x29, x30, [sp, #48]     // 16-byte Folded Reload
	ldp	x20, x19, [sp, #32]     // 16-byte Folded Reload
	ldp	x22, x21, [sp, #16]     // 16-byte Folded Reload
.Ltmp213:
	ldp	x24, x23, [sp], #64     // 16-byte Folded Reload
	ret
.Ltmp214:
.Lfunc_end9:
	.size	ufs_mq_dump_request, .Lfunc_end9-ufs_mq_dump_request
	.cfi_endproc
	.file	157 "/mnt/disk/jenkins/ci/workspace/chipset_pipeline_release/opensource/component_code/vendor/huawei/extra/build/build_script/kirin_kernel_release/kernel/include/linux/list.h"
                                        // -- End function
	.section	.text.ufs_mq_flush_plug_list,"ax",@progbits
	.hidden	ufs_mq_flush_plug_list  // -- Begin function ufs_mq_flush_plug_list
	.globl	ufs_mq_flush_plug_list
	.p2align	2
	.type	ufs_mq_flush_plug_list,@function
ufs_mq_flush_plug_list:                 // @ufs_mq_flush_plug_list
.Lfunc_begin10:
	.loc	1 1530 0                // kernel/block/mas_blk_iosched_ufs_mq.c:1530:0
	.cfi_startproc
// %bb.0:
	//DEBUG_VALUE: ufs_mq_flush_plug_list:plug <- $x0
	sub	sp, sp, #128            // =128
	stp	x26, x25, [sp, #48]     // 16-byte Folded Spill
	stp	x24, x23, [sp, #64]     // 16-byte Folded Spill
	stp	x22, x21, [sp, #80]     // 16-byte Folded Spill
	stp	x20, x19, [sp, #96]     // 16-byte Folded Spill
	stp	x29, x30, [sp, #112]    // 16-byte Folded Spill
	add	x29, sp, #112           // =112
	.cfi_def_cfa w29, 16
	.cfi_offset w30, -8
	.cfi_offset w29, -16
	.cfi_offset w19, -24
	.cfi_offset w20, -32
	.cfi_offset w21, -40
	.cfi_offset w22, -48
	.cfi_offset w23, -56
	.cfi_offset w24, -64
	.cfi_offset w25, -72
	.cfi_offset w26, -80
.Ltmp215:
	.loc	1 1535 27 prologue_end  // kernel/block/mas_blk_iosched_ufs_mq.c:1535:27
	adrp	x8, .L__const.ufs_mq_flush_plug_list.bd
	adrp	x9, __stack_chk_guard
	add	x8, x8, :lo12:.L__const.ufs_mq_flush_plug_list.bd
	ldr	x9, [x9, :lo12:__stack_chk_guard]
	//DEBUG_VALUE: ufs_mq_flush_plug_list:plug <- $x0
	ldp	x11, x10, [x8]
	add	x8, sp, #8              // =8
	str	x9, [sp, #40]
.Ltmp216:
	//DEBUG_VALUE: ufs_mq_flush_plug_list:hctx <- 0
	//DEBUG_VALUE: ufs_mq_flush_plug_list:q <- 0
	//DEBUG_VALUE: ufs_mq_flush_plug_list:rq <- 0
	//DEBUG_VALUE: ufs_mq_flush_plug_list:from_schedule <- undef
	stp	x11, x10, [sp, #24]
.Ltmp217:
	//DEBUG_VALUE: ufs_mq_flush_plug_list:sched_ds <- 0
	.loc	1 1540 2                // kernel/block/mas_blk_iosched_ufs_mq.c:1540:2
	stp	x8, x8, [sp, #8]
.Ltmp218:
	//DEBUG_VALUE: __read_once_size:p <- undef
	//DEBUG_VALUE: __write_once_size:p <- undef
	//DEBUG_VALUE: list_splice_init:list <- undef
	//DEBUG_VALUE: list_empty:head <- undef
	//DEBUG_VALUE: __list_splice:list <- undef
	//DEBUG_VALUE: INIT_LIST_HEAD:list <- undef
	//DEBUG_VALUE: __read_once_size:res <- undef
	//DEBUG_VALUE: ufs_mq_flush_plug_list:list <- [DW_OP_plus_uconst 8, DW_OP_deref] $sp
	//DEBUG_VALUE: __read_once_size:size <- 8
	//DEBUG_VALUE: list_splice_init:head <- [DW_OP_plus_uconst 8] $sp
	.loc	154 183 2               // kernel/include/linux/compiler.h:183:2
	mov	x9, x0
	ldr	x10, [x9, #48]!
.Ltmp219:
	//DEBUG_VALUE: __list_splice:first <- $x10
	.loc	157 377 6               // kernel/include/linux/list.h:377:6
	cmp	x9, x10
	b.eq	.LBB10_2
.Ltmp220:
// %bb.1:
	//DEBUG_VALUE: __list_splice:first <- $x10
	//DEBUG_VALUE: list_splice_init:head <- [DW_OP_plus_uconst 8] $sp
	//DEBUG_VALUE: ufs_mq_flush_plug_list:list <- [DW_OP_plus_uconst 8, DW_OP_deref] $sp
	//DEBUG_VALUE: ufs_mq_flush_plug_list:plug <- $x0
	//DEBUG_VALUE: __list_splice:prev <- [DW_OP_plus_uconst 8] $sp
	//DEBUG_VALUE: __list_splice:next <- [DW_OP_plus_uconst 8] $sp
	.loc	157 334 33              // kernel/include/linux/list.h:334:33
	ldr	x11, [x0, #56]
.Ltmp221:
	//DEBUG_VALUE: __list_splice:last <- $x11
	.loc	157 336 14              // kernel/include/linux/list.h:336:14
	str	x8, [x10, #8]
	.loc	157 337 13              // kernel/include/linux/list.h:337:13
	str	x10, [sp, #8]
	.loc	157 339 13              // kernel/include/linux/list.h:339:13
	str	x8, [x11]
	.loc	157 340 13              // kernel/include/linux/list.h:340:13
	str	x11, [sp, #16]
.Ltmp222:
	//DEBUG_VALUE: __write_once_size:size <- 8
	//DEBUG_VALUE: __write_once_size:res <- undef
	.loc	154 210 31              // kernel/include/linux/compiler.h:210:31
	str	x9, [x0, #48]
.Ltmp223:
	.loc	157 29 13               // kernel/include/linux/list.h:29:13
	str	x9, [x0, #56]
.Ltmp224:
	.loc	1 1544 8                // kernel/block/mas_blk_iosched_ufs_mq.c:1544:8
	ldr	x19, [sp, #8]
	b	.LBB10_3
.Ltmp225:
.LBB10_2:
	//DEBUG_VALUE: __list_splice:first <- $x10
	//DEBUG_VALUE: list_splice_init:head <- [DW_OP_plus_uconst 8] $sp
	//DEBUG_VALUE: ufs_mq_flush_plug_list:list <- [DW_OP_plus_uconst 8, DW_OP_deref] $sp
	//DEBUG_VALUE: ufs_mq_flush_plug_list:plug <- $x0
	.loc	1 0 8 is_stmt 0         // kernel/block/mas_blk_iosched_ufs_mq.c:0:8
	add	x19, sp, #8             // =8
.Ltmp226:
.LBB10_3:
	//DEBUG_VALUE: __list_splice:first <- $x10
	//DEBUG_VALUE: list_splice_init:head <- [DW_OP_plus_uconst 8] $sp
	//DEBUG_VALUE: ufs_mq_flush_plug_list:list <- [DW_OP_plus_uconst 8, DW_OP_deref] $sp
	//DEBUG_VALUE: ufs_mq_flush_plug_list:plug <- $x0
	adrp	x23, cpu_number
	adrp	x24, __per_cpu_offset
	add	x23, x23, :lo12:cpu_number
	add	x24, x24, :lo12:__per_cpu_offset
	add	x25, sp, #8             // =8
	adrp	x26, mas_blk_mq_sync_disp_wq
	//APP
	mrs x22, sp_el0
	//NO_APP
	//APP
	//NO_APP
	b	.LBB10_8
.Ltmp227:
.LBB10_4:                               //   in Loop: Header=BB10_8 Depth=1
	//DEBUG_VALUE: ufs_mq_flush_plug_list:ret <- $w21
	//DEBUG_VALUE: ufs_mq_flush_plug_list:bd <- [DW_OP_plus_uconst 24, DW_OP_deref] $sp
	//DEBUG_VALUE: ufs_mq_flush_plug_list:q <- $x20
	//DEBUG_VALUE: ufs_mq_flush_plug_list:rq <- $x19
	//DEBUG_VALUE: ufs_mq_flush_plug_list:list <- [DW_OP_plus_uconst 8, DW_OP_deref] $sp
	.loc	9 123 3 is_stmt 1       // kernel/block/blk-mq.h:123:3
	bl	preempt_schedule
.Ltmp228:
	.loc	1 1555 7                // kernel/block/mas_blk_iosched_ufs_mq.c:1555:7
	cbz	w21, .LBB10_18
.Ltmp229:
.LBB10_5:                               //   in Loop: Header=BB10_8 Depth=1
	//DEBUG_VALUE: ufs_mq_flush_plug_list:ret <- $w21
	//DEBUG_VALUE: ufs_mq_flush_plug_list:bd <- [DW_OP_plus_uconst 24, DW_OP_deref] $sp
	//DEBUG_VALUE: ufs_mq_flush_plug_list:q <- $x20
	//DEBUG_VALUE: ufs_mq_flush_plug_list:rq <- $x19
	//DEBUG_VALUE: ufs_mq_flush_plug_list:list <- [DW_OP_plus_uconst 8, DW_OP_deref] $sp
	cmp	w21, #9                 // =9
	b.ne	.LBB10_7
.Ltmp230:
// %bb.6:                               //   in Loop: Header=BB10_8 Depth=1
	//DEBUG_VALUE: ufs_mq_flush_plug_list:ret <- $w21
	//DEBUG_VALUE: ufs_mq_flush_plug_list:bd <- [DW_OP_plus_uconst 24, DW_OP_deref] $sp
	//DEBUG_VALUE: ufs_mq_flush_plug_list:q <- $x20
	//DEBUG_VALUE: ufs_mq_flush_plug_list:rq <- $x19
	//DEBUG_VALUE: ufs_mq_flush_plug_list:list <- [DW_OP_plus_uconst 8, DW_OP_deref] $sp
	.loc	1 1557 5                // kernel/block/mas_blk_iosched_ufs_mq.c:1557:5
	mov	x0, x19
	bl	__blk_mq_requeue_request
	.loc	1 1558 5                // kernel/block/mas_blk_iosched_ufs_mq.c:1558:5
	mov	x0, x19
	mov	x1, x20
	bl	ufs_mq_insert_sync_list
.Ltmp231:
	//DEBUG_VALUE: ufs_mq_run_delay_sync_list:delay_jiffies <- 0
	.loc	1 1279 44               // kernel/block/mas_blk_iosched_ufs_mq.c:1279:44
	ldr	x19, [x20, #1800]
.Ltmp232:
	//DEBUG_VALUE: ufs_mq_run_delay_sync_list:sched_ds <- $x19
	.loc	1 1281 21               // kernel/block/mas_blk_iosched_ufs_mq.c:1281:21
	ldr	x1, [x26, :lo12:mas_blk_mq_sync_disp_wq]
.Ltmp233:
	.loc	76 506 9                // kernel/include/linux/workqueue.h:506:9
	orr	w0, wzr, #0x8
	mov	x3, xzr
.Ltmp234:
	.loc	1 1282 33               // kernel/block/mas_blk_iosched_ufs_mq.c:1282:33
	add	x2, x19, #32            // =32
.Ltmp235:
	//DEBUG_VALUE: queue_delayed_work:delay <- 0
	//DEBUG_VALUE: queue_delayed_work:dwork <- $x2
	//DEBUG_VALUE: queue_delayed_work:wq <- $x1
	.loc	76 506 9                // kernel/include/linux/workqueue.h:506:9
	bl	queue_delayed_work_on
.Ltmp236:
	.loc	1 1283 47               // kernel/block/mas_blk_iosched_ufs_mq.c:1283:47
	bl	ktime_get
	.loc	1 1283 45 is_stmt 0     // kernel/block/mas_blk_iosched_ufs_mq.c:1283:45
	str	x0, [x19, #8]
	b	.LBB10_18
.Ltmp237:
.LBB10_7:                               //   in Loop: Header=BB10_8 Depth=1
	//DEBUG_VALUE: ufs_mq_flush_plug_list:ret <- $w21
	//DEBUG_VALUE: ufs_mq_flush_plug_list:bd <- [DW_OP_plus_uconst 24, DW_OP_deref] $sp
	//DEBUG_VALUE: ufs_mq_flush_plug_list:q <- $x20
	//DEBUG_VALUE: ufs_mq_flush_plug_list:rq <- $x19
	//DEBUG_VALUE: ufs_mq_flush_plug_list:list <- [DW_OP_plus_uconst 8, DW_OP_deref] $sp
	.loc	1 1561 5 is_stmt 1      // kernel/block/mas_blk_iosched_ufs_mq.c:1561:5
	mov	w1, #10
	mov	x0, x19
	bl	blk_mq_end_request
	b	.LBB10_18
.Ltmp238:
.LBB10_8:                               // =>This Inner Loop Header: Depth=1
	//DEBUG_VALUE: ufs_mq_flush_plug_list:list <- [DW_OP_plus_uconst 8, DW_OP_deref] $sp
	//DEBUG_VALUE: ufs_mq_flush_plug_list:plug <- $x0
	//DEBUG_VALUE: ufs_mq_flush_plug_list:rq <- $x19
	//DEBUG_VALUE: __mptr <- undef
	.loc	1 1545 11               // kernel/block/mas_blk_iosched_ufs_mq.c:1545:11
	ldr	x20, [x19, #64]
.Ltmp239:
	//DEBUG_VALUE: __blk_mq_get_ctx:q <- $x20
	//DEBUG_VALUE: blk_mq_map_queue:q <- $x20
	//DEBUG_VALUE: ufs_mq_run_delay_sync_list:q <- $x20
	//DEBUG_VALUE: ufs_mq_flush_plug_list:q <- $x20
	.loc	157 120 33              // kernel/include/linux/list.h:120:33
	ldp	x8, x9, [x19]
.Ltmp240:
	.loc	1 1547 14               // kernel/block/mas_blk_iosched_ufs_mq.c:1547:14
	ldr	x21, [x20, #1800]
.Ltmp241:
	//DEBUG_VALUE: __list_del_entry:entry <- $x19
	//DEBUG_VALUE: list_del_init:entry <- $x19
	//DEBUG_VALUE: __list_del:prev <- $x9
	//DEBUG_VALUE: __list_del:next <- $x8
	//DEBUG_VALUE: ufs_mq_flush_plug_list:sched_ds <- $x21
	.loc	157 105 13              // kernel/include/linux/list.h:105:13
	str	x9, [x8, #8]
.Ltmp242:
	//DEBUG_VALUE: __write_once_size:p <- $x9
	//DEBUG_VALUE: __write_once_size:size <- 8
	//DEBUG_VALUE: __write_once_size:res <- undef
	.loc	154 210 31              // kernel/include/linux/compiler.h:210:31
	str	x8, [x9]
.Ltmp243:
	//DEBUG_VALUE: __write_once_size:p <- $x19
	//DEBUG_VALUE: __write_once_size:size <- 8
	//DEBUG_VALUE: __write_once_size:res <- undef
	//DEBUG_VALUE: INIT_LIST_HEAD:list <- $x19
	.loc	154 210 31 is_stmt 0    // kernel/include/linux/compiler.h:210:31
	str	x19, [x19]
.Ltmp244:
	.loc	157 29 13 is_stmt 1     // kernel/include/linux/list.h:29:13
	str	x19, [x19, #8]
.Ltmp245:
	.loc	1 1549 9                // kernel/block/mas_blk_iosched_ufs_mq.c:1549:9
	str	x19, [sp, #24]
.Ltmp246:
	//DEBUG_VALUE: blk_mq_get_ctx:q <- $x20
	.loc	9 110 9                 // kernel/block/blk-mq.h:110:9
	ldr	x8, [x20, #1808]
.Ltmp247:
	.loc	9 110 23 is_stmt 0      // kernel/block/blk-mq.h:110:23
	cbz	x8, .LBB10_11
.Ltmp248:
// %bb.9:                               //   in Loop: Header=BB10_8 Depth=1
	//DEBUG_VALUE: blk_mq_get_ctx:q <- $x20
	//DEBUG_VALUE: ufs_mq_flush_plug_list:sched_ds <- $x21
	//DEBUG_VALUE: ufs_mq_flush_plug_list:q <- $x20
	//DEBUG_VALUE: ufs_mq_flush_plug_list:rq <- $x19
	//DEBUG_VALUE: ufs_mq_flush_plug_list:list <- [DW_OP_plus_uconst 8, DW_OP_deref] $sp
	//DEBUG_VALUE: ufs_mq_flush_plug_list:plug <- $x0
	.loc	9 110 44                // kernel/block/blk-mq.h:110:44
	ldr	x8, [x8, #80]
.Ltmp249:
	.loc	9 110 6                 // kernel/block/blk-mq.h:110:6
	cbz	x8, .LBB10_11
.Ltmp250:
// %bb.10:                              //   in Loop: Header=BB10_8 Depth=1
	//DEBUG_VALUE: blk_mq_get_ctx:q <- $x20
	//DEBUG_VALUE: ufs_mq_flush_plug_list:sched_ds <- $x21
	//DEBUG_VALUE: ufs_mq_flush_plug_list:q <- $x20
	//DEBUG_VALUE: ufs_mq_flush_plug_list:rq <- $x19
	//DEBUG_VALUE: ufs_mq_flush_plug_list:list <- [DW_OP_plus_uconst 8, DW_OP_deref] $sp
	//DEBUG_VALUE: ufs_mq_flush_plug_list:plug <- $x0
	.loc	9 111 10 is_stmt 1      // kernel/block/blk-mq.h:111:10
	mov	x0, x20
.Ltmp251:
	blr	x8
	b	.LBB10_12
.Ltmp252:
.LBB10_11:                              //   in Loop: Header=BB10_8 Depth=1
	//DEBUG_VALUE: blk_mq_get_ctx:q <- $x20
	//DEBUG_VALUE: ufs_mq_flush_plug_list:sched_ds <- $x21
	//DEBUG_VALUE: ufs_mq_flush_plug_list:q <- $x20
	//DEBUG_VALUE: ufs_mq_flush_plug_list:rq <- $x19
	//DEBUG_VALUE: ufs_mq_flush_plug_list:list <- [DW_OP_plus_uconst 8, DW_OP_deref] $sp
	//DEBUG_VALUE: ufs_mq_flush_plug_list:plug <- $x0
	//DEBUG_VALUE: __preempt_count_add:val <- 1
	//DEBUG_VALUE: get_current:sp_el0 <- $x22
	.file	158 "/mnt/disk/jenkins/ci/workspace/chipset_pipeline_release/opensource/component_code/vendor/huawei/extra/build/build_script/kirin_kernel_release/kernel/include/asm-generic/preempt.h"
	.loc	158 54 23               // kernel/include/asm-generic/preempt.h:54:23
	ldr	w8, [x22, #24]
	add	w8, w8, #1              // =1
	str	w8, [x22, #24]
.Ltmp253:
	.loc	9 113 29                // kernel/block/blk-mq.h:113:29
	//APP
	//NO_APP
.Ltmp254:
	//DEBUG_VALUE: __ptr <- $x23
	.file	159 "/mnt/disk/jenkins/ci/workspace/chipset_pipeline_release/opensource/component_code/vendor/huawei/extra/build/build_script/kirin_kernel_release/kernel/arch/arm64/include/asm/percpu.h"
	.loc	159 38 2                // kernel/arch/arm64/include/asm/percpu.h:38:2
	//APP
	.if 1 == 1
661:
	mrs x8, tpidr_el1
662:
.pushsection .altinstructions,"a"
 .word 661b - .
 .if 0 == 0
 .word 663f - .
 .else
 .word 0- .
 .endif
 .hword 11
 .byte 662b-661b
 .byte 664f-663f
.popsection
 .if 0 == 0
.pushsection .altinstr_replacement, "a"
663:
	mrs x8, tpidr_el2
664:
	.popsection
	.org	. - (664b-663b) + (662b-661b)
	.org	. - (662b-661b) + (664b-663b)
.else
	663:
	664:
	.endif
.endif

	//NO_APP
.Ltmp255:
	//DEBUG_VALUE: __my_cpu_offset:off <- $x8
	.loc	9 113 29                // kernel/block/blk-mq.h:113:29
	ldr	w8, [x8, x23]
.Ltmp256:
	//DEBUG_VALUE: __blk_mq_get_ctx:cpu <- undef
	.loc	9 98 9                  // kernel/block/blk-mq.h:98:9
	ldr	x9, [x20, #328]
	//APP
	//NO_APP
.Ltmp257:
	//DEBUG_VALUE: __ptr <- $x9
	ldr	x8, [x24, x8, lsl #3]
	add	x0, x8, x9
.Ltmp258:
.LBB10_12:                              //   in Loop: Header=BB10_8 Depth=1
	//DEBUG_VALUE: ufs_mq_flush_plug_list:sched_ds <- $x21
	//DEBUG_VALUE: ufs_mq_flush_plug_list:q <- $x20
	//DEBUG_VALUE: ufs_mq_flush_plug_list:rq <- $x19
	//DEBUG_VALUE: ufs_mq_flush_plug_list:list <- [DW_OP_plus_uconst 8, DW_OP_deref] $sp
	.loc	1 1550 14               // kernel/block/mas_blk_iosched_ufs_mq.c:1550:14
	str	x0, [x19, #72]
	.loc	1 1551 47               // kernel/block/mas_blk_iosched_ufs_mq.c:1551:47
	ldrsw	x8, [x0, #64]
.Ltmp259:
	//DEBUG_VALUE: blk_mq_map_queue:cpu <- undef
	.loc	9 78 28                 // kernel/block/blk-mq.h:78:28
	ldr	x9, [x20, #320]
	.loc	9 78 12 is_stmt 0       // kernel/block/blk-mq.h:78:12
	ldr	x10, [x20, #344]
.Ltmp260:
	.loc	1 1553 24 is_stmt 1     // kernel/block/mas_blk_iosched_ufs_mq.c:1553:24
	ldr	x2, [x21, #280]
.Ltmp261:
	//DEBUG_VALUE: ufs_mq_flush_plug_list:bd <- [DW_OP_plus_uconst 24, DW_OP_deref] $sp
	.loc	1 1552 9                // kernel/block/mas_blk_iosched_ufs_mq.c:1552:9
	add	x3, sp, #24             // =24
.Ltmp262:
	.loc	9 78 25                 // kernel/block/blk-mq.h:78:25
	ldr	w8, [x9, x8, lsl #2]
.Ltmp263:
	.loc	1 1552 9                // kernel/block/mas_blk_iosched_ufs_mq.c:1552:9
	mov	x0, x19
	mov	x4, x20
.Ltmp264:
	.loc	9 78 9                  // kernel/block/blk-mq.h:78:9
	ldr	x1, [x10, x8, lsl #3]
.Ltmp265:
	//DEBUG_VALUE: ufs_mq_flush_plug_list:hctx <- $x1
	.loc	1 1552 9                // kernel/block/mas_blk_iosched_ufs_mq.c:1552:9
	bl	__ufs_mq_queue_rq
.Ltmp266:
	.loc	1 1554 22               // kernel/block/mas_blk_iosched_ufs_mq.c:1554:22
	ldr	x8, [x19, #72]
.Ltmp267:
	//DEBUG_VALUE: blk_mq_put_ctx:ctx <- $x8
	.loc	1 1552 9                // kernel/block/mas_blk_iosched_ufs_mq.c:1552:9
	mov	w21, w0
.Ltmp268:
	//DEBUG_VALUE: ufs_mq_flush_plug_list:ret <- $w21
	.loc	9 119 11                // kernel/block/blk-mq.h:119:11
	ldr	x8, [x8, #144]
.Ltmp269:
	.loc	9 119 18 is_stmt 0      // kernel/block/blk-mq.h:119:18
	ldr	x9, [x8, #1808]
	.loc	9 119 32                // kernel/block/blk-mq.h:119:32
	cbz	x9, .LBB10_15
.Ltmp270:
// %bb.13:                              //   in Loop: Header=BB10_8 Depth=1
	//DEBUG_VALUE: ufs_mq_flush_plug_list:ret <- $w21
	//DEBUG_VALUE: ufs_mq_flush_plug_list:bd <- [DW_OP_plus_uconst 24, DW_OP_deref] $sp
	//DEBUG_VALUE: ufs_mq_flush_plug_list:q <- $x20
	//DEBUG_VALUE: ufs_mq_flush_plug_list:rq <- $x19
	//DEBUG_VALUE: ufs_mq_flush_plug_list:list <- [DW_OP_plus_uconst 8, DW_OP_deref] $sp
	.loc	9 119 62                // kernel/block/blk-mq.h:119:62
	ldr	x9, [x9, #88]
.Ltmp271:
	.loc	9 119 6                 // kernel/block/blk-mq.h:119:6
	cbz	x9, .LBB10_15
.Ltmp272:
// %bb.14:                              //   in Loop: Header=BB10_8 Depth=1
	//DEBUG_VALUE: ufs_mq_flush_plug_list:ret <- $w21
	//DEBUG_VALUE: ufs_mq_flush_plug_list:bd <- [DW_OP_plus_uconst 24, DW_OP_deref] $sp
	//DEBUG_VALUE: ufs_mq_flush_plug_list:q <- $x20
	//DEBUG_VALUE: ufs_mq_flush_plug_list:rq <- $x19
	//DEBUG_VALUE: ufs_mq_flush_plug_list:list <- [DW_OP_plus_uconst 8, DW_OP_deref] $sp
	.loc	9 120 3 is_stmt 1       // kernel/block/blk-mq.h:120:3
	mov	x0, x8
	blr	x9
	cbz	w21, .LBB10_18
	b	.LBB10_5
.Ltmp273:
.LBB10_15:                              //   in Loop: Header=BB10_8 Depth=1
	//DEBUG_VALUE: ufs_mq_flush_plug_list:ret <- $w21
	//DEBUG_VALUE: ufs_mq_flush_plug_list:bd <- [DW_OP_plus_uconst 24, DW_OP_deref] $sp
	//DEBUG_VALUE: ufs_mq_flush_plug_list:q <- $x20
	//DEBUG_VALUE: ufs_mq_flush_plug_list:rq <- $x19
	//DEBUG_VALUE: ufs_mq_flush_plug_list:list <- [DW_OP_plus_uconst 8, DW_OP_deref] $sp
	.loc	9 123 3                 // kernel/block/blk-mq.h:123:3
	//APP
	//NO_APP
.Ltmp274:
	//DEBUG_VALUE: test_ti_thread_flag:ti <- $x22
	//DEBUG_VALUE: get_current:sp_el0 <- $x22
	//DEBUG_VALUE: get_current:sp_el0 <- $x22
	.loc	158 69 10               // kernel/include/asm-generic/preempt.h:69:10
	ldr	w8, [x22, #24]
	subs	w8, w8, #1              // =1
	str	w8, [x22, #24]
	.loc	158 69 33 is_stmt 0     // kernel/include/asm-generic/preempt.h:69:33
	b.ne	.LBB10_17
.Ltmp275:
// %bb.16:                              //   in Loop: Header=BB10_8 Depth=1
	//DEBUG_VALUE: test_ti_thread_flag:ti <- $x22
	//DEBUG_VALUE: ufs_mq_flush_plug_list:ret <- $w21
	//DEBUG_VALUE: ufs_mq_flush_plug_list:bd <- [DW_OP_plus_uconst 24, DW_OP_deref] $sp
	//DEBUG_VALUE: ufs_mq_flush_plug_list:q <- $x20
	//DEBUG_VALUE: ufs_mq_flush_plug_list:rq <- $x19
	//DEBUG_VALUE: ufs_mq_flush_plug_list:list <- [DW_OP_plus_uconst 8, DW_OP_deref] $sp
	//DEBUG_VALUE: test_ti_thread_flag:flag <- 1
	//DEBUG_VALUE: test_bit:nr <- 1
	//DEBUG_VALUE: test_bit:addr <- $x22
	.file	160 "/mnt/disk/jenkins/ci/workspace/chipset_pipeline_release/opensource/component_code/vendor/huawei/extra/build/build_script/kirin_kernel_release/kernel/include/asm-generic/bitops/non-atomic.h"
	.loc	160 106 16 is_stmt 1    // kernel/include/asm-generic/bitops/non-atomic.h:106:16
	ldr	x8, [x22]
.Ltmp276:
	.loc	9 123 3                 // kernel/block/blk-mq.h:123:3
	tbnz	w8, #1, .LBB10_4
.Ltmp277:
.LBB10_17:                              //   in Loop: Header=BB10_8 Depth=1
	//DEBUG_VALUE: ufs_mq_flush_plug_list:ret <- $w21
	//DEBUG_VALUE: ufs_mq_flush_plug_list:bd <- [DW_OP_plus_uconst 24, DW_OP_deref] $sp
	//DEBUG_VALUE: ufs_mq_flush_plug_list:q <- $x20
	//DEBUG_VALUE: ufs_mq_flush_plug_list:rq <- $x19
	//DEBUG_VALUE: ufs_mq_flush_plug_list:list <- [DW_OP_plus_uconst 8, DW_OP_deref] $sp
	.loc	1 1555 7                // kernel/block/mas_blk_iosched_ufs_mq.c:1555:7
	cbnz	w21, .LBB10_5
.Ltmp278:
.LBB10_18:                              //   in Loop: Header=BB10_8 Depth=1
	//DEBUG_VALUE: ufs_mq_flush_plug_list:ret <- $w21
	//DEBUG_VALUE: ufs_mq_flush_plug_list:bd <- [DW_OP_plus_uconst 24, DW_OP_deref] $sp
	//DEBUG_VALUE: ufs_mq_flush_plug_list:q <- $x20
	//DEBUG_VALUE: ufs_mq_flush_plug_list:list <- [DW_OP_plus_uconst 8, DW_OP_deref] $sp
	//DEBUG_VALUE: ufs_mq_flush_plug_list:list <- [DW_OP_plus_uconst 8, DW_OP_deref] $sp
	//DEBUG_VALUE: list_empty:head <- [DW_OP_plus_uconst 8] $sp
	//DEBUG_VALUE: __read_once_size:res <- undef
	//DEBUG_VALUE: __read_once_size:size <- 8
	//DEBUG_VALUE: __read_once_size:p <- [DW_OP_plus_uconst 8] $sp
	.loc	154 183 2               // kernel/include/linux/compiler.h:183:2
	ldr	x19, [sp, #8]
.Ltmp279:
	.loc	1 1564 2                // kernel/block/mas_blk_iosched_ufs_mq.c:1564:2
	cmp	x25, x19
	b.ne	.LBB10_8
.Ltmp280:
// %bb.19:
	//DEBUG_VALUE: __read_once_size:p <- [DW_OP_plus_uconst 8] $sp
	//DEBUG_VALUE: list_empty:head <- [DW_OP_plus_uconst 8] $sp
	//DEBUG_VALUE: ufs_mq_flush_plug_list:ret <- $w21
	//DEBUG_VALUE: ufs_mq_flush_plug_list:bd <- [DW_OP_plus_uconst 24, DW_OP_deref] $sp
	//DEBUG_VALUE: ufs_mq_flush_plug_list:q <- $x20
	//DEBUG_VALUE: ufs_mq_flush_plug_list:list <- [DW_OP_plus_uconst 8, DW_OP_deref] $sp
	.loc	1 0 2 is_stmt 0         // kernel/block/mas_blk_iosched_ufs_mq.c:0:2
	adrp	x9, __stack_chk_guard
	ldr	x8, [sp, #40]
	ldr	x9, [x9, :lo12:__stack_chk_guard]
	cmp	x9, x8
	b.ne	.LBB10_21
.Ltmp281:
// %bb.20:
	//DEBUG_VALUE: ufs_mq_flush_plug_list:ret <- $w21
	//DEBUG_VALUE: ufs_mq_flush_plug_list:bd <- [DW_OP_plus_uconst 24, DW_OP_deref] $sp
	//DEBUG_VALUE: ufs_mq_flush_plug_list:q <- $x20
	//DEBUG_VALUE: ufs_mq_flush_plug_list:list <- [DW_OP_plus_uconst 8, DW_OP_deref] $sp
	.loc	1 1565 1 is_stmt 1      // kernel/block/mas_blk_iosched_ufs_mq.c:1565:1
	ldp	x29, x30, [sp, #112]    // 16-byte Folded Reload
	ldp	x20, x19, [sp, #96]     // 16-byte Folded Reload
.Ltmp282:
	ldp	x22, x21, [sp, #80]     // 16-byte Folded Reload
.Ltmp283:
	ldp	x24, x23, [sp, #64]     // 16-byte Folded Reload
	ldp	x26, x25, [sp, #48]     // 16-byte Folded Reload
	add	sp, sp, #128            // =128
.Ltmp284:
	ret
.Ltmp285:
.LBB10_21:
	//DEBUG_VALUE: __read_once_size:p <- [DW_OP_plus_uconst 8] $sp
	//DEBUG_VALUE: list_empty:head <- [DW_OP_plus_uconst 8] $sp
	//DEBUG_VALUE: ufs_mq_flush_plug_list:ret <- $w21
	//DEBUG_VALUE: ufs_mq_flush_plug_list:bd <- [DW_OP_plus_uconst 24, DW_OP_deref] $sp
	//DEBUG_VALUE: ufs_mq_flush_plug_list:q <- $x20
	//DEBUG_VALUE: ufs_mq_flush_plug_list:list <- [DW_OP_plus_uconst 8, DW_OP_deref] $sp
	.loc	1 0 1 is_stmt 0         // kernel/block/mas_blk_iosched_ufs_mq.c:0:1
	bl	__stack_chk_fail
.Lfunc_end10:
	.size	ufs_mq_flush_plug_list, .Lfunc_end10-ufs_mq_flush_plug_list
	.cfi_endproc
	.file	161 "/mnt/disk/jenkins/ci/workspace/chipset_pipeline_release/opensource/component_code/vendor/huawei/extra/build/build_script/kirin_kernel_release/kernel/include/linux/thread_info.h"
                                        // -- End function
	.section	.text.__ufs_mq_queue_rq,"ax",@progbits
	.p2align	2               // -- Begin function __ufs_mq_queue_rq
	.type	__ufs_mq_queue_rq,@function
__ufs_mq_queue_rq:                      // @__ufs_mq_queue_rq
.Lfunc_begin11:
	.loc	1 1229 0 is_stmt 1      // kernel/block/mas_blk_iosched_ufs_mq.c:1229:0
	.cfi_startproc
// %bb.0:
	//DEBUG_VALUE: __ufs_mq_queue_rq:rq <- $x0
	//DEBUG_VALUE: __ufs_mq_queue_rq:hctx <- $x1
	//DEBUG_VALUE: __ufs_mq_queue_rq:ds_lld <- $x2
	//DEBUG_VALUE: __ufs_mq_queue_rq:bd <- $x3
	//DEBUG_VALUE: __ufs_mq_queue_rq:q <- $x4
	str	x27, [sp, #-96]!        // 8-byte Folded Spill
	stp	x26, x25, [sp, #16]     // 16-byte Folded Spill
	stp	x24, x23, [sp, #32]     // 16-byte Folded Spill
	stp	x22, x21, [sp, #48]     // 16-byte Folded Spill
	stp	x20, x19, [sp, #64]     // 16-byte Folded Spill
	stp	x29, x30, [sp, #80]     // 16-byte Folded Spill
	add	x29, sp, #80            // =80
	.cfi_def_cfa w29, 16
	.cfi_offset w30, -8
	.cfi_offset w29, -16
	.cfi_offset w19, -24
	.cfi_offset w20, -32
	.cfi_offset w21, -40
	.cfi_offset w22, -48
	.cfi_offset w23, -56
	.cfi_offset w24, -64
	.cfi_offset w25, -72
	.cfi_offset w26, -80
	.cfi_offset w27, -96
.Ltmp286:
	.loc	1 1052 6 prologue_end   // kernel/block/mas_blk_iosched_ufs_mq.c:1052:6
	ldr	w8, [x0, #84]
	mov	w26, #4096
	mov	x23, x4
	mov	x21, x3
	mov	x19, x2
	mov	x22, x1
	mov	x20, x0
.Ltmp287:
	//DEBUG_VALUE: __ufs_mq_queue_rq:q <- $x23
	//DEBUG_VALUE: __ufs_mq_queue_rq:bd <- $x21
	//DEBUG_VALUE: __ufs_mq_queue_rq:ds_lld <- $x19
	//DEBUG_VALUE: __ufs_mq_queue_rq:hctx <- $x22
	//DEBUG_VALUE: __ufs_mq_queue_rq:rq <- $x20
	.loc	1 0 6 is_stmt 0         // kernel/block/mas_blk_iosched_ufs_mq.c:0:6
	movk	w26, #64, lsl #16
.Ltmp288:
	//DEBUG_VALUE: ufs_mq_fs_io_limit:ds_lld <- undef
	//DEBUG_VALUE: ufs_mq_fs_io_limit:rq <- $x20
	.loc	1 1052 6                // kernel/block/mas_blk_iosched_ufs_mq.c:1052:6
	tbz	w8, #11, .LBB11_29
.Ltmp289:
// %bb.1:
	//DEBUG_VALUE: ufs_mq_fs_io_limit:rq <- $x20
	//DEBUG_VALUE: __ufs_mq_queue_rq:rq <- $x20
	//DEBUG_VALUE: __ufs_mq_queue_rq:hctx <- $x22
	//DEBUG_VALUE: __ufs_mq_queue_rq:ds_lld <- $x19
	//DEBUG_VALUE: __ufs_mq_queue_rq:bd <- $x21
	//DEBUG_VALUE: __ufs_mq_queue_rq:q <- $x23
	//DEBUG_VALUE: ufs_mq_sync_io_limit:rq <- $x20
	//DEBUG_VALUE: ufs_mq_sync_io_limit:ds_lld <- $x19
	//DEBUG_VALUE: ufs_mq_sync_io_limit:ret <- 0
	//DEBUG_VALUE: ufs_mq_rq_is_highprio:rq <- $x20
	.loc	1 977 9 is_stmt 1       // kernel/block/mas_blk_iosched_ufs_mq.c:977:9
	tst	w8, w26
.Ltmp290:
	.loc	1 986 6                 // kernel/block/mas_blk_iosched_ufs_mq.c:986:6
	b.eq	.LBB11_5
.Ltmp291:
// %bb.2:
	//DEBUG_VALUE: ufs_mq_sync_io_limit:ds_lld <- $x19
	//DEBUG_VALUE: ufs_mq_sync_io_limit:rq <- $x20
	//DEBUG_VALUE: ufs_mq_fs_io_limit:rq <- $x20
	//DEBUG_VALUE: __ufs_mq_queue_rq:rq <- $x20
	//DEBUG_VALUE: __ufs_mq_queue_rq:hctx <- $x22
	//DEBUG_VALUE: __ufs_mq_queue_rq:ds_lld <- $x19
	//DEBUG_VALUE: __ufs_mq_queue_rq:bd <- $x21
	//DEBUG_VALUE: __ufs_mq_queue_rq:q <- $x23
	//DEBUG_VALUE: ufs_mq_rq_is_fg:rq <- $x20
	.loc	1 0 6 is_stmt 0         // kernel/block/mas_blk_iosched_ufs_mq.c:0:6
	mov	w25, #4096
	movk	w25, #64, lsl #16
.Ltmp292:
	//DEBUG_VALUE: atomic_add:i <- 1
	//DEBUG_VALUE: atomic_add:i <- 1
	.loc	1 988 7 is_stmt 1       // kernel/block/mas_blk_iosched_ufs_mq.c:988:7
	tbnz	w8, #23, .LBB11_8
.Ltmp293:
// %bb.3:
	//DEBUG_VALUE: ufs_mq_sync_io_limit:ds_lld <- $x19
	//DEBUG_VALUE: ufs_mq_sync_io_limit:rq <- $x20
	//DEBUG_VALUE: ufs_mq_fs_io_limit:rq <- $x20
	//DEBUG_VALUE: __ufs_mq_queue_rq:rq <- $x20
	//DEBUG_VALUE: __ufs_mq_queue_rq:hctx <- $x22
	//DEBUG_VALUE: __ufs_mq_queue_rq:ds_lld <- $x19
	//DEBUG_VALUE: __ufs_mq_queue_rq:bd <- $x21
	//DEBUG_VALUE: __ufs_mq_queue_rq:q <- $x23
	.loc	1 0 0 is_stmt 0         // kernel/block/mas_blk_iosched_ufs_mq.c:0:0
	and	x8, x8, x25
	.loc	1 988 7                 // kernel/block/mas_blk_iosched_ufs_mq.c:988:7
	cbz	x8, .LBB11_8
.Ltmp294:
// %bb.4:
	//DEBUG_VALUE: ufs_mq_sync_io_limit:ds_lld <- $x19
	//DEBUG_VALUE: ufs_mq_sync_io_limit:rq <- $x20
	//DEBUG_VALUE: ufs_mq_fs_io_limit:rq <- $x20
	//DEBUG_VALUE: __ufs_mq_queue_rq:rq <- $x20
	//DEBUG_VALUE: __ufs_mq_queue_rq:hctx <- $x22
	//DEBUG_VALUE: __ufs_mq_queue_rq:ds_lld <- $x19
	//DEBUG_VALUE: __ufs_mq_queue_rq:bd <- $x21
	//DEBUG_VALUE: __ufs_mq_queue_rq:q <- $x23
	//DEBUG_VALUE: atomic_add:v <- [DW_OP_plus_uconst 44, DW_OP_stack_value] $x19
	.loc	153 113 1 is_stmt 1     // kernel/arch/arm64/include/asm/atomic_ll_sc.h:113:1
	add	x8, x19, #44            // =44
	//APP
	// atomic_add
	prfm	pstl1strm, [x8]
1:	ldxr	w9, [x8]
	add	w9, w9, #1
	stxr	w10, w9, [x8]
	cbnz	w10, 1b
	//NO_APP
.Ltmp295:
	//DEBUG_VALUE: atomic_add:tmp <- undef
	//DEBUG_VALUE: atomic_add:result <- undef
	.loc	153 0 1 is_stmt 0       // kernel/arch/arm64/include/asm/atomic_ll_sc.h:0:1
	b	.LBB11_9
.Ltmp296:
.LBB11_5:
	//DEBUG_VALUE: ufs_mq_sync_io_limit:ds_lld <- $x19
	//DEBUG_VALUE: ufs_mq_sync_io_limit:rq <- $x20
	//DEBUG_VALUE: ufs_mq_fs_io_limit:rq <- $x20
	//DEBUG_VALUE: __ufs_mq_queue_rq:rq <- $x20
	//DEBUG_VALUE: __ufs_mq_queue_rq:hctx <- $x22
	//DEBUG_VALUE: __ufs_mq_queue_rq:ds_lld <- $x19
	//DEBUG_VALUE: __ufs_mq_queue_rq:bd <- $x21
	//DEBUG_VALUE: __ufs_mq_queue_rq:q <- $x23
	//DEBUG_VALUE: atomic_add_return:i <- 1
	//DEBUG_VALUE: atomic_add_return:v <- [DW_OP_plus_uconst 32, DW_OP_stack_value] $x19
	.loc	153 113 1               // kernel/arch/arm64/include/asm/atomic_ll_sc.h:113:1
	add	x8, x19, #32            // =32
	//APP
	// atomic_add_return
	prfm	pstl1strm, [x8]
1:	ldxr	w9, [x8]
	add	w9, w9, #1
	stlxr	w10, w9, [x8]
	cbnz	w10, 1b
	dmb ish
	//NO_APP
.Ltmp297:
	//DEBUG_VALUE: atomic_add_return:tmp <- undef
	//DEBUG_VALUE: atomic_add_return:result <- $w9
	.loc	1 1002 6 is_stmt 1      // kernel/block/mas_blk_iosched_ufs_mq.c:1002:6
	ldr	w8, [x19, #172]
.Ltmp298:
	.loc	1 0 0 is_stmt 0         // kernel/block/mas_blk_iosched_ufs_mq.c:0:0
	cmp	w9, w8
	b.le	.LBB11_14
.Ltmp299:
.LBB11_6:
	//DEBUG_VALUE: ufs_mq_fs_io_limit:rq <- $x20
	//DEBUG_VALUE: __ufs_mq_queue_rq:rq <- $x20
	//DEBUG_VALUE: __ufs_mq_queue_rq:hctx <- $x22
	//DEBUG_VALUE: __ufs_mq_queue_rq:ds_lld <- $x19
	//DEBUG_VALUE: __ufs_mq_queue_rq:bd <- $x21
	//DEBUG_VALUE: __ufs_mq_queue_rq:q <- $x23
	ldrb	w8, [x19, #504]
	cmp	w8, #1                  // =1
	b.eq	.LBB11_14
.Ltmp300:
// %bb.7:
	//DEBUG_VALUE: ufs_mq_fs_io_limit:rq <- $x20
	//DEBUG_VALUE: __ufs_mq_queue_rq:rq <- $x20
	//DEBUG_VALUE: __ufs_mq_queue_rq:hctx <- $x22
	//DEBUG_VALUE: __ufs_mq_queue_rq:ds_lld <- $x19
	//DEBUG_VALUE: __ufs_mq_queue_rq:bd <- $x21
	//DEBUG_VALUE: __ufs_mq_queue_rq:q <- $x23
	//DEBUG_VALUE: ufs_mq_sync_io_limit:ret <- 9
	orr	w8, wzr, #0x2
	mov	w0, #9
	str	w8, [x20, #284]
.Ltmp301:
	//DEBUG_VALUE: __ufs_mq_queue_rq:ret <- $w0
	//DEBUG_VALUE: ufs_mq_rq_inflt_update:rq <- $x20
	//DEBUG_VALUE: ufs_mq_rq_inflt_update:ds_lld <- $x19
	//DEBUG_LABEL: __ufs_mq_queue_rq:exit
	.loc	1 1080 6 is_stmt 1      // kernel/block/mas_blk_iosched_ufs_mq.c:1080:6
	ldr	w8, [x20, #84]
	tbnz	w8, #11, .LBB11_33
	b	.LBB11_40
.Ltmp302:
.LBB11_8:
	//DEBUG_VALUE: ufs_mq_sync_io_limit:ds_lld <- $x19
	//DEBUG_VALUE: ufs_mq_sync_io_limit:rq <- $x20
	//DEBUG_VALUE: ufs_mq_fs_io_limit:rq <- $x20
	//DEBUG_VALUE: __ufs_mq_queue_rq:rq <- $x20
	//DEBUG_VALUE: __ufs_mq_queue_rq:hctx <- $x22
	//DEBUG_VALUE: __ufs_mq_queue_rq:ds_lld <- $x19
	//DEBUG_VALUE: __ufs_mq_queue_rq:bd <- $x21
	//DEBUG_VALUE: __ufs_mq_queue_rq:q <- $x23
	//DEBUG_VALUE: atomic_add:v <- [DW_OP_plus_uconst 40, DW_OP_stack_value] $x19
	.loc	153 113 1               // kernel/arch/arm64/include/asm/atomic_ll_sc.h:113:1
	add	x8, x19, #40            // =40
	//APP
	// atomic_add
	prfm	pstl1strm, [x8]
1:	ldxr	w9, [x8]
	add	w9, w9, #1
	stxr	w10, w9, [x8]
	cbnz	w10, 1b
	//NO_APP
.Ltmp303:
	//DEBUG_VALUE: atomic_add:tmp <- undef
	//DEBUG_VALUE: atomic_add:result <- undef
.LBB11_9:
	//DEBUG_VALUE: ufs_mq_sync_io_limit:ds_lld <- $x19
	//DEBUG_VALUE: ufs_mq_sync_io_limit:rq <- $x20
	//DEBUG_VALUE: ufs_mq_fs_io_limit:rq <- $x20
	//DEBUG_VALUE: __ufs_mq_queue_rq:rq <- $x20
	//DEBUG_VALUE: __ufs_mq_queue_rq:hctx <- $x22
	//DEBUG_VALUE: __ufs_mq_queue_rq:ds_lld <- $x19
	//DEBUG_VALUE: __ufs_mq_queue_rq:bd <- $x21
	//DEBUG_VALUE: __ufs_mq_queue_rq:q <- $x23
	//DEBUG_VALUE: ufs_mq_cp_io_limit:rq <- $x20
	//DEBUG_VALUE: ufs_mq_cp_io_limit:ds_lld <- $x19
	.loc	1 958 26                // kernel/block/mas_blk_iosched_ufs_mq.c:958:26
	ldr	x0, [x20, #64]
.Ltmp304:
	//DEBUG_VALUE: mas_cp_enabled:q <- $x0
	.loc	1 951 9                 // kernel/block/mas_blk_iosched_ufs_mq.c:951:9
	bl	mas_blk_get_lld
.Ltmp305:
	.loc	1 958 6                 // kernel/block/mas_blk_iosched_ufs_mq.c:958:6
	ldrb	w8, [x0, #24]
	tbz	w8, #6, .LBB11_14
.Ltmp306:
// %bb.10:
	//DEBUG_VALUE: ufs_mq_cp_io_limit:ds_lld <- $x19
	//DEBUG_VALUE: ufs_mq_cp_io_limit:rq <- $x20
	//DEBUG_VALUE: ufs_mq_sync_io_limit:ds_lld <- $x19
	//DEBUG_VALUE: ufs_mq_sync_io_limit:rq <- $x20
	//DEBUG_VALUE: ufs_mq_fs_io_limit:rq <- $x20
	//DEBUG_VALUE: __ufs_mq_queue_rq:rq <- $x20
	//DEBUG_VALUE: __ufs_mq_queue_rq:hctx <- $x22
	//DEBUG_VALUE: __ufs_mq_queue_rq:ds_lld <- $x19
	//DEBUG_VALUE: __ufs_mq_queue_rq:bd <- $x21
	//DEBUG_VALUE: __ufs_mq_queue_rq:q <- $x23
	.loc	1 961 14                // kernel/block/mas_blk_iosched_ufs_mq.c:961:14
	ldrb	w8, [x19, #504]
.Ltmp307:
	.loc	1 961 6 is_stmt 0       // kernel/block/mas_blk_iosched_ufs_mq.c:961:6
	cbnz	w8, .LBB11_14
.Ltmp308:
// %bb.11:
	//DEBUG_VALUE: ufs_mq_cp_io_limit:ds_lld <- $x19
	//DEBUG_VALUE: ufs_mq_cp_io_limit:rq <- $x20
	//DEBUG_VALUE: ufs_mq_sync_io_limit:ds_lld <- $x19
	//DEBUG_VALUE: ufs_mq_sync_io_limit:rq <- $x20
	//DEBUG_VALUE: ufs_mq_fs_io_limit:rq <- $x20
	//DEBUG_VALUE: __ufs_mq_queue_rq:rq <- $x20
	//DEBUG_VALUE: __ufs_mq_queue_rq:hctx <- $x22
	//DEBUG_VALUE: __ufs_mq_queue_rq:ds_lld <- $x19
	//DEBUG_VALUE: __ufs_mq_queue_rq:bd <- $x21
	//DEBUG_VALUE: __ufs_mq_queue_rq:q <- $x23
	//DEBUG_VALUE: ufs_mq_could_add_cp_flag:rq <- $x20
	//DEBUG_VALUE: ufs_mq_could_add_cp_flag:ds_lld <- $x19
	.loc	1 895 48 is_stmt 1      // kernel/block/mas_blk_iosched_ufs_mq.c:895:48
	ldr	x0, [x20, #64]
	.loc	1 895 28 is_stmt 0      // kernel/block/mas_blk_iosched_ufs_mq.c:895:28
	bl	mas_blk_get_lld
.Ltmp309:
	.loc	1 901 11 is_stmt 1      // kernel/block/mas_blk_iosched_ufs_mq.c:901:11
	ldr	w8, [x20, #84]
.Ltmp310:
	.loc	1 895 28                // kernel/block/mas_blk_iosched_ufs_mq.c:895:28
	mov	x24, x0
.Ltmp311:
	//DEBUG_VALUE: ufs_mq_could_add_cp_flag:oldest_bio_ktime <- 0
	//DEBUG_VALUE: ufs_mq_could_add_cp_flag:oldest_bio <- 0
	//DEBUG_VALUE: ufs_mq_could_add_cp_flag:lld <- $x24
	//DEBUG_VALUE: spinlock_check:lock <- [DW_OP_plus_uconst 400, DW_OP_stack_value] $x24
	//DEBUG_VALUE: spin_unlock_irqrestore:lock <- [DW_OP_plus_uconst 400, DW_OP_stack_value] $x24
	.loc	1 901 32                // kernel/block/mas_blk_iosched_ufs_mq.c:901:32
	tbz	w8, #23, .LBB11_16
.Ltmp312:
// %bb.12:
	//DEBUG_VALUE: ufs_mq_could_add_cp_flag:lld <- $x24
	//DEBUG_VALUE: ufs_mq_could_add_cp_flag:ds_lld <- $x19
	//DEBUG_VALUE: ufs_mq_could_add_cp_flag:rq <- $x20
	//DEBUG_VALUE: ufs_mq_cp_io_limit:ds_lld <- $x19
	//DEBUG_VALUE: ufs_mq_cp_io_limit:rq <- $x20
	//DEBUG_VALUE: ufs_mq_sync_io_limit:ds_lld <- $x19
	//DEBUG_VALUE: ufs_mq_sync_io_limit:rq <- $x20
	//DEBUG_VALUE: ufs_mq_fs_io_limit:rq <- $x20
	//DEBUG_VALUE: __ufs_mq_queue_rq:rq <- $x20
	//DEBUG_VALUE: __ufs_mq_queue_rq:hctx <- $x22
	//DEBUG_VALUE: __ufs_mq_queue_rq:ds_lld <- $x19
	//DEBUG_VALUE: __ufs_mq_queue_rq:bd <- $x21
	//DEBUG_VALUE: __ufs_mq_queue_rq:q <- $x23
	.loc	1 0 0 is_stmt 0         // kernel/block/mas_blk_iosched_ufs_mq.c:0:0
	and	w9, w8, #0xff
	.loc	1 901 32                // kernel/block/mas_blk_iosched_ufs_mq.c:901:32
	cmp	w9, #1                  // =1
	b.eq	.LBB11_16
.Ltmp313:
.LBB11_13:
	//DEBUG_VALUE: ufs_mq_cp_io_limit:ds_lld <- $x19
	//DEBUG_VALUE: ufs_mq_cp_io_limit:rq <- $x20
	//DEBUG_VALUE: ufs_mq_sync_io_limit:ds_lld <- $x19
	//DEBUG_VALUE: ufs_mq_sync_io_limit:rq <- $x20
	//DEBUG_VALUE: ufs_mq_fs_io_limit:rq <- $x20
	//DEBUG_VALUE: __ufs_mq_queue_rq:rq <- $x20
	//DEBUG_VALUE: __ufs_mq_queue_rq:hctx <- $x22
	//DEBUG_VALUE: __ufs_mq_queue_rq:ds_lld <- $x19
	//DEBUG_VALUE: __ufs_mq_queue_rq:bd <- $x21
	//DEBUG_VALUE: __ufs_mq_queue_rq:q <- $x23
	//DEBUG_VALUE: ufs_mq_add_cp_flag:rq <- $x20
	//DEBUG_VALUE: ufs_mq_add_cp_flag:ds_lld <- $x19
	.loc	1 860 31 is_stmt 1      // kernel/block/mas_blk_iosched_ufs_mq.c:860:31
	ldr	x8, [x20, #272]
	.loc	1 861 16                // kernel/block/mas_blk_iosched_ufs_mq.c:861:16
	ldr	w9, [x20, #84]
	.loc	1 860 31                // kernel/block/mas_blk_iosched_ufs_mq.c:860:31
	orr	x8, x8, #0x2
	.loc	1 861 16                // kernel/block/mas_blk_iosched_ufs_mq.c:861:16
	orr	w9, w9, #0x10000000
	.loc	1 860 31                // kernel/block/mas_blk_iosched_ufs_mq.c:860:31
	str	x8, [x20, #272]
	.loc	1 861 16                // kernel/block/mas_blk_iosched_ufs_mq.c:861:16
	str	w9, [x20, #84]
.Ltmp314:
	//DEBUG_VALUE: atomic_add:v <- [DW_OP_plus_uconst 12, DW_OP_stack_value] $x19
	//DEBUG_VALUE: atomic_add:i <- 1
	.loc	153 113 1               // kernel/arch/arm64/include/asm/atomic_ll_sc.h:113:1
	add	x8, x19, #12            // =12
	//APP
	// atomic_add
	prfm	pstl1strm, [x8]
1:	ldxr	w9, [x8]
	add	w9, w9, #1
	stxr	w10, w9, [x8]
	cbnz	w10, 1b
	//NO_APP
.Ltmp315:
	//DEBUG_VALUE: atomic_add:tmp <- undef
	//DEBUG_VALUE: atomic_add:result <- undef
.LBB11_14:
	//DEBUG_VALUE: __ufs_mq_queue_rq:rq <- $x20
	//DEBUG_VALUE: __ufs_mq_queue_rq:hctx <- $x22
	//DEBUG_VALUE: __ufs_mq_queue_rq:ds_lld <- $x19
	//DEBUG_VALUE: __ufs_mq_queue_rq:bd <- $x21
	//DEBUG_VALUE: __ufs_mq_queue_rq:q <- $x23
	//DEBUG_VALUE: __ufs_mq_queue_rq_internal:hctx <- $x22
	//DEBUG_VALUE: __ufs_mq_queue_rq_internal:q <- $x23
	//DEBUG_VALUE: __ufs_mq_queue_rq_internal:bd <- $x21
	//DEBUG_VALUE: __ufs_mq_queue_rq_internal:ds_lld <- undef
	.loc	1 1216 11               // kernel/block/mas_blk_iosched_ufs_mq.c:1216:11
	ldr	x8, [x23, #312]
	.loc	1 1216 8 is_stmt 0      // kernel/block/mas_blk_iosched_ufs_mq.c:1216:8
	mov	x0, x22
	mov	x1, x21
	.loc	1 1216 19               // kernel/block/mas_blk_iosched_ufs_mq.c:1216:19
	ldr	x8, [x8]
	.loc	1 1216 8                // kernel/block/mas_blk_iosched_ufs_mq.c:1216:8
	blr	x8
	.loc	1 1217 32 is_stmt 1     // kernel/block/mas_blk_iosched_ufs_mq.c:1217:32
	ldr	x8, [x21]
	.loc	1 1216 8                // kernel/block/mas_blk_iosched_ufs_mq.c:1216:8
	mov	w21, w0
.Ltmp316:
	//DEBUG_VALUE: __ufs_mq_queue_rq_internal:ret <- undef
	.loc	1 1217 2                // kernel/block/mas_blk_iosched_ufs_mq.c:1217:2
	mov	w1, #10
	mov	x0, x8
	bl	mas_blk_latency_req_check
	.loc	1 1216 8                // kernel/block/mas_blk_iosched_ufs_mq.c:1216:8
	ands	w0, w21, #0xff
.Ltmp317:
	//DEBUG_VALUE: __ufs_mq_queue_rq:ret <- $w0
	.loc	1 0 8 is_stmt 0         // kernel/block/mas_blk_iosched_ufs_mq.c:0:8
	b.ne	.LBB11_30
.Ltmp318:
.LBB11_15:
	//DEBUG_VALUE: __ufs_mq_queue_rq:ret <- $w0
	//DEBUG_VALUE: __ufs_mq_queue_rq:rq <- $x20
	//DEBUG_VALUE: __ufs_mq_queue_rq:hctx <- $x22
	//DEBUG_VALUE: __ufs_mq_queue_rq:ds_lld <- $x19
	//DEBUG_VALUE: __ufs_mq_queue_rq:q <- $x23
	.loc	1 1261 1 is_stmt 1      // kernel/block/mas_blk_iosched_ufs_mq.c:1261:1
	ldp	x29, x30, [sp, #80]     // 16-byte Folded Reload
	ldp	x20, x19, [sp, #64]     // 16-byte Folded Reload
.Ltmp319:
	ldp	x22, x21, [sp, #48]     // 16-byte Folded Reload
.Ltmp320:
	ldp	x24, x23, [sp, #32]     // 16-byte Folded Reload
.Ltmp321:
	ldp	x26, x25, [sp, #16]     // 16-byte Folded Reload
	ldr	x27, [sp], #96          // 8-byte Folded Reload
	ret
.Ltmp322:
.LBB11_16:
	//DEBUG_VALUE: ufs_mq_could_add_cp_flag:lld <- $x24
	//DEBUG_VALUE: ufs_mq_could_add_cp_flag:ds_lld <- $x19
	//DEBUG_VALUE: ufs_mq_could_add_cp_flag:rq <- $x20
	//DEBUG_VALUE: ufs_mq_cp_io_limit:ds_lld <- $x19
	//DEBUG_VALUE: ufs_mq_cp_io_limit:rq <- $x20
	//DEBUG_VALUE: ufs_mq_sync_io_limit:ds_lld <- $x19
	//DEBUG_VALUE: ufs_mq_sync_io_limit:rq <- $x20
	//DEBUG_VALUE: ufs_mq_fs_io_limit:rq <- $x20
	//DEBUG_VALUE: __ufs_mq_queue_rq:rq <- $x20
	//DEBUG_VALUE: __ufs_mq_queue_rq:hctx <- $x22
	//DEBUG_VALUE: __ufs_mq_queue_rq:ds_lld <- $x19
	//DEBUG_VALUE: __ufs_mq_queue_rq:bd <- $x21
	//DEBUG_VALUE: __ufs_mq_queue_rq:q <- $x23
	//DEBUG_VALUE: ufs_mq_rq_is_fg:rq <- $x20
	.loc	1 904 26                // kernel/block/mas_blk_iosched_ufs_mq.c:904:26
	tbnz	w8, #23, .LBB11_19
.Ltmp323:
// %bb.17:
	//DEBUG_VALUE: ufs_mq_could_add_cp_flag:lld <- $x24
	//DEBUG_VALUE: ufs_mq_could_add_cp_flag:ds_lld <- $x19
	//DEBUG_VALUE: ufs_mq_could_add_cp_flag:rq <- $x20
	//DEBUG_VALUE: ufs_mq_cp_io_limit:ds_lld <- $x19
	//DEBUG_VALUE: ufs_mq_cp_io_limit:rq <- $x20
	//DEBUG_VALUE: ufs_mq_sync_io_limit:ds_lld <- $x19
	//DEBUG_VALUE: ufs_mq_sync_io_limit:rq <- $x20
	//DEBUG_VALUE: ufs_mq_fs_io_limit:rq <- $x20
	//DEBUG_VALUE: __ufs_mq_queue_rq:rq <- $x20
	//DEBUG_VALUE: __ufs_mq_queue_rq:hctx <- $x22
	//DEBUG_VALUE: __ufs_mq_queue_rq:ds_lld <- $x19
	//DEBUG_VALUE: __ufs_mq_queue_rq:bd <- $x21
	//DEBUG_VALUE: __ufs_mq_queue_rq:q <- $x23
	.loc	1 0 0 is_stmt 0         // kernel/block/mas_blk_iosched_ufs_mq.c:0:0
	and	x8, x8, x25
	.loc	1 904 26                // kernel/block/mas_blk_iosched_ufs_mq.c:904:26
	cbz	x8, .LBB11_19
.Ltmp324:
// %bb.18:
	//DEBUG_VALUE: ufs_mq_could_add_cp_flag:lld <- $x24
	//DEBUG_VALUE: ufs_mq_could_add_cp_flag:ds_lld <- $x19
	//DEBUG_VALUE: ufs_mq_could_add_cp_flag:rq <- $x20
	//DEBUG_VALUE: ufs_mq_cp_io_limit:ds_lld <- $x19
	//DEBUG_VALUE: ufs_mq_cp_io_limit:rq <- $x20
	//DEBUG_VALUE: ufs_mq_sync_io_limit:ds_lld <- $x19
	//DEBUG_VALUE: ufs_mq_sync_io_limit:rq <- $x20
	//DEBUG_VALUE: ufs_mq_fs_io_limit:rq <- $x20
	//DEBUG_VALUE: __ufs_mq_queue_rq:rq <- $x20
	//DEBUG_VALUE: __ufs_mq_queue_rq:hctx <- $x22
	//DEBUG_VALUE: __ufs_mq_queue_rq:ds_lld <- $x19
	//DEBUG_VALUE: __ufs_mq_queue_rq:bd <- $x21
	//DEBUG_VALUE: __ufs_mq_queue_rq:q <- $x23
	//DEBUG_VALUE: ufs_mq_vip_inflt_burst:ds_lld <- $x19
	//DEBUG_VALUE: __read_once_size:p <- [DW_OP_plus_uconst 40, DW_OP_stack_value] $x19
	//DEBUG_VALUE: __read_once_size:res <- undef
	//DEBUG_VALUE: __read_once_size:size <- 4
	.loc	154 183 2 is_stmt 1     // kernel/include/linux/compiler.h:183:2
	ldr	w8, [x19, #40]
.Ltmp325:
	.loc	1 904 6                 // kernel/block/mas_blk_iosched_ufs_mq.c:904:6
	cmp	w8, #2                  // =2
	b.gt	.LBB11_14
.Ltmp326:
.LBB11_19:
	//DEBUG_VALUE: ufs_mq_could_add_cp_flag:lld <- $x24
	//DEBUG_VALUE: ufs_mq_could_add_cp_flag:ds_lld <- $x19
	//DEBUG_VALUE: ufs_mq_could_add_cp_flag:rq <- $x20
	//DEBUG_VALUE: ufs_mq_cp_io_limit:ds_lld <- $x19
	//DEBUG_VALUE: ufs_mq_cp_io_limit:rq <- $x20
	//DEBUG_VALUE: ufs_mq_sync_io_limit:ds_lld <- $x19
	//DEBUG_VALUE: ufs_mq_sync_io_limit:rq <- $x20
	//DEBUG_VALUE: ufs_mq_fs_io_limit:rq <- $x20
	//DEBUG_VALUE: __ufs_mq_queue_rq:rq <- $x20
	//DEBUG_VALUE: __ufs_mq_queue_rq:hctx <- $x22
	//DEBUG_VALUE: __ufs_mq_queue_rq:ds_lld <- $x19
	//DEBUG_VALUE: __ufs_mq_queue_rq:bd <- $x21
	//DEBUG_VALUE: __ufs_mq_queue_rq:q <- $x23
	//DEBUG_VALUE: __read_once_size:p <- [DW_OP_plus_uconst 32, DW_OP_stack_value] $x19
	//DEBUG_VALUE: __read_once_size:res <- undef
	//DEBUG_VALUE: __read_once_size:size <- 4
	.loc	154 183 2               // kernel/include/linux/compiler.h:183:2
	ldr	w8, [x19, #32]
.Ltmp327:
	.loc	1 907 47                // kernel/block/mas_blk_iosched_ufs_mq.c:907:47
	cbnz	w8, .LBB11_21
.Ltmp328:
// %bb.20:
	//DEBUG_VALUE: ufs_mq_could_add_cp_flag:lld <- $x24
	//DEBUG_VALUE: ufs_mq_could_add_cp_flag:ds_lld <- $x19
	//DEBUG_VALUE: ufs_mq_could_add_cp_flag:rq <- $x20
	//DEBUG_VALUE: ufs_mq_cp_io_limit:ds_lld <- $x19
	//DEBUG_VALUE: ufs_mq_cp_io_limit:rq <- $x20
	//DEBUG_VALUE: ufs_mq_sync_io_limit:ds_lld <- $x19
	//DEBUG_VALUE: ufs_mq_sync_io_limit:rq <- $x20
	//DEBUG_VALUE: ufs_mq_fs_io_limit:rq <- $x20
	//DEBUG_VALUE: __ufs_mq_queue_rq:rq <- $x20
	//DEBUG_VALUE: __ufs_mq_queue_rq:hctx <- $x22
	//DEBUG_VALUE: __ufs_mq_queue_rq:ds_lld <- $x19
	//DEBUG_VALUE: __ufs_mq_queue_rq:bd <- $x21
	//DEBUG_VALUE: __ufs_mq_queue_rq:q <- $x23
	//DEBUG_VALUE: __read_once_size:p <- [DW_OP_plus_uconst 36, DW_OP_stack_value] $x19
	//DEBUG_VALUE: __read_once_size:res <- undef
	//DEBUG_VALUE: __read_once_size:size <- 4
	.loc	154 183 2               // kernel/include/linux/compiler.h:183:2
	ldr	w8, [x19, #36]
.Ltmp329:
	.loc	1 907 6                 // kernel/block/mas_blk_iosched_ufs_mq.c:907:6
	cbz	w8, .LBB11_13
.Ltmp330:
.LBB11_21:
	//DEBUG_VALUE: ufs_mq_could_add_cp_flag:lld <- $x24
	//DEBUG_VALUE: ufs_mq_could_add_cp_flag:ds_lld <- $x19
	//DEBUG_VALUE: ufs_mq_could_add_cp_flag:rq <- $x20
	//DEBUG_VALUE: ufs_mq_cp_io_limit:ds_lld <- $x19
	//DEBUG_VALUE: ufs_mq_cp_io_limit:rq <- $x20
	//DEBUG_VALUE: ufs_mq_sync_io_limit:ds_lld <- $x19
	//DEBUG_VALUE: ufs_mq_sync_io_limit:rq <- $x20
	//DEBUG_VALUE: ufs_mq_fs_io_limit:rq <- $x20
	//DEBUG_VALUE: __ufs_mq_queue_rq:rq <- $x20
	//DEBUG_VALUE: __ufs_mq_queue_rq:hctx <- $x22
	//DEBUG_VALUE: __ufs_mq_queue_rq:ds_lld <- $x19
	//DEBUG_VALUE: __ufs_mq_queue_rq:bd <- $x21
	//DEBUG_VALUE: __ufs_mq_queue_rq:q <- $x23
	//DEBUG_VALUE: __read_once_size:p <- [DW_OP_plus_uconst 12, DW_OP_stack_value] $x19
	//DEBUG_VALUE: __read_once_size:p <- [DW_OP_plus_uconst 12, DW_OP_stack_value] $x19
	//DEBUG_VALUE: __read_once_size:res <- undef
	//DEBUG_VALUE: __read_once_size:size <- 4
	.loc	154 183 2               // kernel/include/linux/compiler.h:183:2
	ldr	w8, [x19, #12]
.Ltmp331:
	.loc	1 911 6                 // kernel/block/mas_blk_iosched_ufs_mq.c:911:6
	cbz	w8, .LBB11_13
.Ltmp332:
// %bb.22:
	//DEBUG_VALUE: ufs_mq_could_add_cp_flag:lld <- $x24
	//DEBUG_VALUE: ufs_mq_could_add_cp_flag:ds_lld <- $x19
	//DEBUG_VALUE: ufs_mq_could_add_cp_flag:rq <- $x20
	//DEBUG_VALUE: ufs_mq_cp_io_limit:ds_lld <- $x19
	//DEBUG_VALUE: ufs_mq_cp_io_limit:rq <- $x20
	//DEBUG_VALUE: ufs_mq_sync_io_limit:ds_lld <- $x19
	//DEBUG_VALUE: ufs_mq_sync_io_limit:rq <- $x20
	//DEBUG_VALUE: ufs_mq_fs_io_limit:rq <- $x20
	//DEBUG_VALUE: __ufs_mq_queue_rq:rq <- $x20
	//DEBUG_VALUE: __ufs_mq_queue_rq:hctx <- $x22
	//DEBUG_VALUE: __ufs_mq_queue_rq:ds_lld <- $x19
	//DEBUG_VALUE: __ufs_mq_queue_rq:bd <- $x21
	//DEBUG_VALUE: __ufs_mq_queue_rq:q <- $x23
	.loc	154 183 2               // kernel/include/linux/compiler.h:183:2
	ldr	x8, [x24, #368]
.Ltmp333:
	.loc	1 914 32                // kernel/block/mas_blk_iosched_ufs_mq.c:914:32
	add	x27, x24, #368          // =368
.Ltmp334:
	//DEBUG_VALUE: __read_once_size:p <- $x27
	//DEBUG_VALUE: __read_once_size:p <- $x27
	//DEBUG_VALUE: __read_once_size:size <- 8
	//DEBUG_VALUE: __read_once_size:res <- undef
	//DEBUG_VALUE: list_empty:head <- $x27
	//DEBUG_VALUE: list_empty:head <- $x27
	.loc	1 914 6 is_stmt 0       // kernel/block/mas_blk_iosched_ufs_mq.c:914:6
	cmp	x27, x8
	b.eq	.LBB11_13
.Ltmp335:
// %bb.23:
	//DEBUG_VALUE: list_empty:head <- $x27
	//DEBUG_VALUE: __read_once_size:p <- $x27
	//DEBUG_VALUE: ufs_mq_could_add_cp_flag:lld <- $x24
	//DEBUG_VALUE: ufs_mq_could_add_cp_flag:ds_lld <- $x19
	//DEBUG_VALUE: ufs_mq_could_add_cp_flag:rq <- $x20
	//DEBUG_VALUE: ufs_mq_cp_io_limit:ds_lld <- $x19
	//DEBUG_VALUE: ufs_mq_cp_io_limit:rq <- $x20
	//DEBUG_VALUE: ufs_mq_sync_io_limit:ds_lld <- $x19
	//DEBUG_VALUE: ufs_mq_sync_io_limit:rq <- $x20
	//DEBUG_VALUE: ufs_mq_fs_io_limit:rq <- $x20
	//DEBUG_VALUE: __ufs_mq_queue_rq:rq <- $x20
	//DEBUG_VALUE: __ufs_mq_queue_rq:hctx <- $x22
	//DEBUG_VALUE: __ufs_mq_queue_rq:ds_lld <- $x19
	//DEBUG_VALUE: __ufs_mq_queue_rq:bd <- $x21
	//DEBUG_VALUE: __ufs_mq_queue_rq:q <- $x23
	.file	162 "/mnt/disk/jenkins/ci/workspace/chipset_pipeline_release/opensource/component_code/vendor/huawei/extra/build/build_script/kirin_kernel_release/kernel/include/linux/spinlock.h"
	.loc	162 306 16 is_stmt 1    // kernel/include/linux/spinlock.h:306:16
	add	x25, x24, #400          // =400
.Ltmp336:
	.loc	1 917 2                 // kernel/block/mas_blk_iosched_ufs_mq.c:917:2
	mov	x0, x25
	bl	_raw_spin_lock_irqsave
.Ltmp337:
	.loc	154 183 2               // kernel/include/linux/compiler.h:183:2
	ldr	x8, [x24, #368]
.Ltmp338:
	.loc	1 917 2                 // kernel/block/mas_blk_iosched_ufs_mq.c:917:2
	mov	x1, x0
.Ltmp339:
	//DEBUG_VALUE: __read_once_size:size <- 8
	//DEBUG_VALUE: __read_once_size:res <- undef
	//DEBUG_VALUE: ufs_mq_could_add_cp_flag:flags <- $x1
	//DEBUG_VALUE: spin_unlock_irqrestore:flags <- $x1
	.loc	1 918 6                 // kernel/block/mas_blk_iosched_ufs_mq.c:918:6
	cmp	x27, x8
	b.eq	.LBB11_25
.Ltmp340:
// %bb.24:
	//DEBUG_VALUE: ufs_mq_could_add_cp_flag:flags <- $x1
	//DEBUG_VALUE: ufs_mq_could_add_cp_flag:lld <- $x24
	//DEBUG_VALUE: ufs_mq_could_add_cp_flag:ds_lld <- $x19
	//DEBUG_VALUE: ufs_mq_could_add_cp_flag:rq <- $x20
	//DEBUG_VALUE: ufs_mq_cp_io_limit:ds_lld <- $x19
	//DEBUG_VALUE: ufs_mq_cp_io_limit:rq <- $x20
	//DEBUG_VALUE: ufs_mq_sync_io_limit:ds_lld <- $x19
	//DEBUG_VALUE: ufs_mq_sync_io_limit:rq <- $x20
	//DEBUG_VALUE: ufs_mq_fs_io_limit:rq <- $x20
	//DEBUG_VALUE: __ufs_mq_queue_rq:rq <- $x20
	//DEBUG_VALUE: __ufs_mq_queue_rq:hctx <- $x22
	//DEBUG_VALUE: __ufs_mq_queue_rq:ds_lld <- $x19
	//DEBUG_VALUE: __ufs_mq_queue_rq:bd <- $x21
	//DEBUG_VALUE: __ufs_mq_queue_rq:q <- $x23
	//DEBUG_VALUE: ufs_mq_could_add_cp_flag:oldest_bio <- [DW_OP_constu 272, DW_OP_minus, DW_OP_stack_value] $x8
	.loc	1 921 22                // kernel/block/mas_blk_iosched_ufs_mq.c:921:22
	ldur	x24, [x8, #-112]
.Ltmp341:
	//DEBUG_VALUE: ufs_mq_could_add_cp_flag:oldest_bio_ktime <- $x24
	.loc	1 0 22 is_stmt 0        // kernel/block/mas_blk_iosched_ufs_mq.c:0:22
	b	.LBB11_26
.Ltmp342:
.LBB11_25:
	//DEBUG_VALUE: spin_unlock_irqrestore:flags <- $x1
	//DEBUG_VALUE: ufs_mq_could_add_cp_flag:flags <- $x1
	//DEBUG_VALUE: list_empty:head <- $x27
	//DEBUG_VALUE: __read_once_size:p <- $x27
	//DEBUG_VALUE: ufs_mq_could_add_cp_flag:lld <- $x24
	//DEBUG_VALUE: ufs_mq_could_add_cp_flag:ds_lld <- $x19
	//DEBUG_VALUE: ufs_mq_could_add_cp_flag:rq <- $x20
	//DEBUG_VALUE: ufs_mq_cp_io_limit:ds_lld <- $x19
	//DEBUG_VALUE: ufs_mq_cp_io_limit:rq <- $x20
	//DEBUG_VALUE: ufs_mq_sync_io_limit:ds_lld <- $x19
	//DEBUG_VALUE: ufs_mq_sync_io_limit:rq <- $x20
	//DEBUG_VALUE: ufs_mq_fs_io_limit:rq <- $x20
	//DEBUG_VALUE: __ufs_mq_queue_rq:rq <- $x20
	//DEBUG_VALUE: __ufs_mq_queue_rq:hctx <- $x22
	//DEBUG_VALUE: __ufs_mq_queue_rq:ds_lld <- $x19
	//DEBUG_VALUE: __ufs_mq_queue_rq:bd <- $x21
	//DEBUG_VALUE: __ufs_mq_queue_rq:q <- $x23
	mov	x24, xzr
.Ltmp343:
.LBB11_26:
	//DEBUG_VALUE: ufs_mq_could_add_cp_flag:flags <- $x1
	//DEBUG_VALUE: ufs_mq_could_add_cp_flag:ds_lld <- $x19
	//DEBUG_VALUE: ufs_mq_could_add_cp_flag:rq <- $x20
	//DEBUG_VALUE: ufs_mq_cp_io_limit:ds_lld <- $x19
	//DEBUG_VALUE: ufs_mq_cp_io_limit:rq <- $x20
	//DEBUG_VALUE: ufs_mq_sync_io_limit:ds_lld <- $x19
	//DEBUG_VALUE: ufs_mq_sync_io_limit:rq <- $x20
	//DEBUG_VALUE: ufs_mq_fs_io_limit:rq <- $x20
	//DEBUG_VALUE: __ufs_mq_queue_rq:rq <- $x20
	//DEBUG_VALUE: __ufs_mq_queue_rq:hctx <- $x22
	//DEBUG_VALUE: __ufs_mq_queue_rq:ds_lld <- $x19
	//DEBUG_VALUE: __ufs_mq_queue_rq:bd <- $x21
	//DEBUG_VALUE: __ufs_mq_queue_rq:q <- $x23
	//DEBUG_VALUE: ufs_mq_could_add_cp_flag:oldest_bio_ktime <- $x24
	//DEBUG_VALUE: ktime_add_ms:kt <- $x24
	.loc	162 372 2 is_stmt 1     // kernel/include/linux/spinlock.h:372:2
	mov	x0, x25
	bl	_raw_spin_unlock_irqrestore
.Ltmp344:
	.loc	1 926 14                // kernel/block/mas_blk_iosched_ufs_mq.c:926:14
	bl	ktime_get
.Ltmp345:
	//DEBUG_VALUE: ufs_mq_could_add_cp_flag:now_ktime <- $x0
	//DEBUG_VALUE: ktime_before:cmp1 <- $x0
	//DEBUG_VALUE: ktime_compare:cmp1 <- $x0
	//DEBUG_VALUE: ktime_before:cmp1 <- $x0
	//DEBUG_VALUE: ktime_compare:cmp1 <- $x0
	.loc	1 0 14 is_stmt 0        // kernel/block/mas_blk_iosched_ufs_mq.c:0:14
	mov	w8, #57600
	movk	w8, #1525, lsl #16
.Ltmp346:
	//DEBUG_VALUE: ktime_add_ms:msec <- 100
	//DEBUG_VALUE: ktime_add_ms:kt <- $x24
	.loc	58 200 9 is_stmt 1      // kernel/include/linux/ktime.h:200:9
	add	x8, x24, x8
.Ltmp347:
	//DEBUG_VALUE: ktime_compare:cmp2 <- $x8
	//DEBUG_VALUE: ktime_before:cmp2 <- $x8
	.loc	1 927 6                 // kernel/block/mas_blk_iosched_ufs_mq.c:927:6
	cmp	x0, x8
	b.lt	.LBB11_13
.Ltmp348:
// %bb.27:
	//DEBUG_VALUE: ktime_compare:cmp1 <- $x0
	//DEBUG_VALUE: ktime_before:cmp1 <- $x0
	//DEBUG_VALUE: ufs_mq_could_add_cp_flag:now_ktime <- $x0
	//DEBUG_VALUE: ktime_add_ms:kt <- $x24
	//DEBUG_VALUE: ufs_mq_could_add_cp_flag:oldest_bio_ktime <- $x24
	//DEBUG_VALUE: ufs_mq_could_add_cp_flag:ds_lld <- $x19
	//DEBUG_VALUE: ufs_mq_could_add_cp_flag:rq <- $x20
	//DEBUG_VALUE: ufs_mq_cp_io_limit:ds_lld <- $x19
	//DEBUG_VALUE: ufs_mq_cp_io_limit:rq <- $x20
	//DEBUG_VALUE: ufs_mq_sync_io_limit:ds_lld <- $x19
	//DEBUG_VALUE: ufs_mq_sync_io_limit:rq <- $x20
	//DEBUG_VALUE: ufs_mq_fs_io_limit:rq <- $x20
	//DEBUG_VALUE: __ufs_mq_queue_rq:rq <- $x20
	//DEBUG_VALUE: __ufs_mq_queue_rq:hctx <- $x22
	//DEBUG_VALUE: __ufs_mq_queue_rq:ds_lld <- $x19
	//DEBUG_VALUE: __ufs_mq_queue_rq:bd <- $x21
	//DEBUG_VALUE: __ufs_mq_queue_rq:q <- $x23
	.loc	1 0 6 is_stmt 0         // kernel/block/mas_blk_iosched_ufs_mq.c:0:6
	mov	w8, #25856
	movk	w8, #7629, lsl #16
.Ltmp349:
	//DEBUG_VALUE: ktime_add_ms:msec <- 500
	.loc	58 200 9 is_stmt 1      // kernel/include/linux/ktime.h:200:9
	add	x8, x24, x8
.Ltmp350:
	//DEBUG_VALUE: ktime_compare:cmp2 <- $x8
	//DEBUG_VALUE: ktime_before:cmp2 <- $x8
	.loc	1 931 57                // kernel/block/mas_blk_iosched_ufs_mq.c:931:57
	cmp	x0, x8
	b.ge	.LBB11_14
.Ltmp351:
// %bb.28:
	//DEBUG_VALUE: ufs_mq_could_add_cp_flag:now_ktime <- $x0
	//DEBUG_VALUE: ufs_mq_could_add_cp_flag:oldest_bio_ktime <- $x24
	//DEBUG_VALUE: ufs_mq_could_add_cp_flag:ds_lld <- $x19
	//DEBUG_VALUE: ufs_mq_could_add_cp_flag:rq <- $x20
	//DEBUG_VALUE: ufs_mq_cp_io_limit:ds_lld <- $x19
	//DEBUG_VALUE: ufs_mq_cp_io_limit:rq <- $x20
	//DEBUG_VALUE: ufs_mq_sync_io_limit:ds_lld <- $x19
	//DEBUG_VALUE: ufs_mq_sync_io_limit:rq <- $x20
	//DEBUG_VALUE: ufs_mq_fs_io_limit:rq <- $x20
	//DEBUG_VALUE: __ufs_mq_queue_rq:rq <- $x20
	//DEBUG_VALUE: __ufs_mq_queue_rq:hctx <- $x22
	//DEBUG_VALUE: __ufs_mq_queue_rq:ds_lld <- $x19
	//DEBUG_VALUE: __ufs_mq_queue_rq:bd <- $x21
	//DEBUG_VALUE: __ufs_mq_queue_rq:q <- $x23
	//DEBUG_VALUE: __read_once_size:res <- undef
	//DEBUG_VALUE: __read_once_size:size <- 4
	.loc	154 183 2               // kernel/include/linux/compiler.h:183:2
	ldr	w8, [x19, #12]
.Ltmp352:
	.loc	1 933 13                // kernel/block/mas_blk_iosched_ufs_mq.c:933:13
	ldr	w9, [x19, #8]
.Ltmp353:
	.loc	1 930 11                // kernel/block/mas_blk_iosched_ufs_mq.c:930:11
	cmp	w8, w9
	b.lo	.LBB11_13
	b	.LBB11_14
.Ltmp354:
.LBB11_29:
	//DEBUG_VALUE: ufs_mq_fs_io_limit:rq <- $x20
	//DEBUG_VALUE: __ufs_mq_queue_rq:rq <- $x20
	//DEBUG_VALUE: __ufs_mq_queue_rq:hctx <- $x22
	//DEBUG_VALUE: __ufs_mq_queue_rq:ds_lld <- $x19
	//DEBUG_VALUE: __ufs_mq_queue_rq:bd <- $x21
	//DEBUG_VALUE: __ufs_mq_queue_rq:q <- $x23
	//DEBUG_VALUE: ufs_mq_async_io_limit:rq <- $x20
	//DEBUG_VALUE: ufs_mq_async_io_limit:ds_lld <- $x19
	//DEBUG_VALUE: atomic_add_return:i <- 1
	//DEBUG_VALUE: atomic_add_return:v <- [DW_OP_plus_uconst 36, DW_OP_stack_value] $x19
	.loc	153 113 1               // kernel/arch/arm64/include/asm/atomic_ll_sc.h:113:1
	add	x8, x19, #36            // =36
	//APP
	// atomic_add_return
	prfm	pstl1strm, [x8]
1:	ldxr	w9, [x8]
	add	w9, w9, #1
	stlxr	w10, w9, [x8]
	cbnz	w10, 1b
	dmb ish
	//NO_APP
.Ltmp355:
	//DEBUG_VALUE: atomic_add_return:tmp <- undef
	//DEBUG_VALUE: atomic_add_return:result <- $w9
	.loc	1 1033 6                // kernel/block/mas_blk_iosched_ufs_mq.c:1033:6
	ldr	w8, [x19, #176]
.Ltmp356:
	.loc	1 0 0 is_stmt 0         // kernel/block/mas_blk_iosched_ufs_mq.c:0:0
	cmp	w9, w8
	b.gt	.LBB11_6
	b	.LBB11_14
.Ltmp357:
.LBB11_30:
	//DEBUG_VALUE: __ufs_mq_queue_rq:ret <- $w0
	//DEBUG_VALUE: __ufs_mq_queue_rq:rq <- $x20
	//DEBUG_VALUE: __ufs_mq_queue_rq:hctx <- $x22
	//DEBUG_VALUE: __ufs_mq_queue_rq:ds_lld <- $x19
	//DEBUG_VALUE: __ufs_mq_queue_rq:q <- $x23
	orr	w8, wzr, #0x1
	.loc	1 1250 29 is_stmt 1     // kernel/block/mas_blk_iosched_ufs_mq.c:1250:29
	str	w8, [x20, #284]
.Ltmp358:
	//DEBUG_VALUE: __read_once_size:size <- 4
	//DEBUG_VALUE: __read_once_size:res <- undef
	//DEBUG_VALUE: __read_once_size:p <- [DW_OP_plus_uconst 44, DW_OP_stack_value] $x19
	//DEBUG_VALUE: ufs_mq_get_hp_inflt:ds_lld <- $x19
	.loc	154 183 2               // kernel/include/linux/compiler.h:183:2
	ldr	w8, [x19, #44]
.Ltmp359:
	//DEBUG_VALUE: __read_once_size:p <- [DW_OP_plus_uconst 40, DW_OP_stack_value] $x19
	//DEBUG_VALUE: __read_once_size:size <- 4
	//DEBUG_VALUE: __read_once_size:res <- undef
	.loc	154 183 2 is_stmt 0     // kernel/include/linux/compiler.h:183:2
	ldr	w9, [x19, #40]
.Ltmp360:
	.loc	154 183 2               // kernel/include/linux/compiler.h:183:2
	ldr	w10, [x19, #32]
.Ltmp361:
	.loc	154 183 2               // kernel/include/linux/compiler.h:183:2
	ldr	w11, [x19, #36]
.Ltmp362:
	.loc	1 848 47 is_stmt 1      // kernel/block/mas_blk_iosched_ufs_mq.c:848:47
	add	w8, w9, w8
.Ltmp363:
	//DEBUG_VALUE: __read_once_size:p <- [DW_OP_plus_uconst 32, DW_OP_stack_value] $x19
	//DEBUG_VALUE: __read_once_size:size <- 4
	//DEBUG_VALUE: __read_once_size:res <- undef
	//DEBUG_VALUE: ufs_mq_get_hp_inflt:ds_lld <- $x19
	.loc	1 1251 34               // kernel/block/mas_blk_iosched_ufs_mq.c:1251:34
	add	w8, w8, w10
.Ltmp364:
	//DEBUG_VALUE: __read_once_size:p <- [DW_OP_plus_uconst 36, DW_OP_stack_value] $x19
	//DEBUG_VALUE: __read_once_size:size <- 4
	//DEBUG_VALUE: __read_once_size:res <- undef
	.loc	1 1252 44               // kernel/block/mas_blk_iosched_ufs_mq.c:1252:44
	add	w8, w8, w11
.Ltmp365:
	.loc	1 1251 6                // kernel/block/mas_blk_iosched_ufs_mq.c:1251:6
	cmp	w8, #8                  // =8
	b.gt	.LBB11_32
.Ltmp366:
// %bb.31:
	//DEBUG_VALUE: __ufs_mq_queue_rq:ret <- $w0
	//DEBUG_VALUE: __ufs_mq_queue_rq:rq <- $x20
	//DEBUG_VALUE: __ufs_mq_queue_rq:hctx <- $x22
	//DEBUG_VALUE: __ufs_mq_queue_rq:ds_lld <- $x19
	//DEBUG_VALUE: __ufs_mq_queue_rq:q <- $x23
	.loc	1 0 6 is_stmt 0         // kernel/block/mas_blk_iosched_ufs_mq.c:0:6
	orr	w8, wzr, #0x4
.Ltmp367:
	.loc	1 1255 30 is_stmt 1     // kernel/block/mas_blk_iosched_ufs_mq.c:1255:30
	str	w8, [x20, #284]
.Ltmp368:
.LBB11_32:
	//DEBUG_VALUE: __ufs_mq_queue_rq:ret <- $w0
	//DEBUG_VALUE: __ufs_mq_queue_rq:rq <- $x20
	//DEBUG_VALUE: __ufs_mq_queue_rq:hctx <- $x22
	//DEBUG_VALUE: __ufs_mq_queue_rq:ds_lld <- $x19
	//DEBUG_VALUE: __ufs_mq_queue_rq:q <- $x23
	//DEBUG_VALUE: __ufs_mq_queue_rq:ret <- $w0
	//DEBUG_VALUE: ufs_mq_rq_inflt_update:rq <- $x20
	//DEBUG_VALUE: ufs_mq_rq_inflt_update:ds_lld <- $x19
	//DEBUG_LABEL: __ufs_mq_queue_rq:exit
	.loc	1 1080 6                // kernel/block/mas_blk_iosched_ufs_mq.c:1080:6
	ldr	w8, [x20, #84]
	tbz	w8, #11, .LBB11_40
.Ltmp369:
.LBB11_33:
	//DEBUG_VALUE: ufs_mq_rq_inflt_update:ds_lld <- $x19
	//DEBUG_VALUE: ufs_mq_rq_inflt_update:rq <- $x20
	//DEBUG_VALUE: __ufs_mq_queue_rq:ret <- $w0
	//DEBUG_VALUE: __ufs_mq_queue_rq:rq <- $x20
	//DEBUG_VALUE: __ufs_mq_queue_rq:hctx <- $x22
	//DEBUG_VALUE: __ufs_mq_queue_rq:ds_lld <- $x19
	//DEBUG_VALUE: __ufs_mq_queue_rq:q <- $x23
	//DEBUG_VALUE: ufs_mq_rq_is_highprio:rq <- $x20
	.loc	1 977 9                 // kernel/block/mas_blk_iosched_ufs_mq.c:977:9
	tst	w8, w26
	b.eq	.LBB11_37
.Ltmp370:
// %bb.34:
	//DEBUG_VALUE: ufs_mq_rq_inflt_update:ds_lld <- $x19
	//DEBUG_VALUE: ufs_mq_rq_inflt_update:rq <- $x20
	//DEBUG_VALUE: __ufs_mq_queue_rq:ret <- $w0
	//DEBUG_VALUE: __ufs_mq_queue_rq:rq <- $x20
	//DEBUG_VALUE: __ufs_mq_queue_rq:hctx <- $x22
	//DEBUG_VALUE: __ufs_mq_queue_rq:ds_lld <- $x19
	//DEBUG_VALUE: __ufs_mq_queue_rq:q <- $x23
	//DEBUG_VALUE: ufs_mq_rq_is_fg:rq <- $x20
	//DEBUG_VALUE: atomic_sub:i <- 1
	//DEBUG_VALUE: atomic_sub:i <- 1
	.loc	1 0 9 is_stmt 0         // kernel/block/mas_blk_iosched_ufs_mq.c:0:9
	tbnz	w8, #23, .LBB11_38
.Ltmp371:
// %bb.35:
	//DEBUG_VALUE: ufs_mq_rq_is_fg:rq <- $x20
	//DEBUG_VALUE: ufs_mq_rq_inflt_update:ds_lld <- $x19
	//DEBUG_VALUE: ufs_mq_rq_inflt_update:rq <- $x20
	//DEBUG_VALUE: __ufs_mq_queue_rq:ret <- $w0
	//DEBUG_VALUE: __ufs_mq_queue_rq:rq <- $x20
	//DEBUG_VALUE: __ufs_mq_queue_rq:hctx <- $x22
	//DEBUG_VALUE: __ufs_mq_queue_rq:ds_lld <- $x19
	//DEBUG_VALUE: __ufs_mq_queue_rq:q <- $x23
	mov	w9, #4096
	movk	w9, #64, lsl #16
.Ltmp372:
	and	x8, x8, x9
	cbz	x8, .LBB11_38
.Ltmp373:
// %bb.36:
	//DEBUG_VALUE: ufs_mq_rq_inflt_update:ds_lld <- $x19
	//DEBUG_VALUE: ufs_mq_rq_inflt_update:rq <- $x20
	//DEBUG_VALUE: __ufs_mq_queue_rq:ret <- $w0
	//DEBUG_VALUE: __ufs_mq_queue_rq:rq <- $x20
	//DEBUG_VALUE: __ufs_mq_queue_rq:hctx <- $x22
	//DEBUG_VALUE: __ufs_mq_queue_rq:ds_lld <- $x19
	//DEBUG_VALUE: __ufs_mq_queue_rq:q <- $x23
	//DEBUG_VALUE: atomic_sub:v <- [DW_OP_plus_uconst 44, DW_OP_stack_value] $x19
	.loc	153 114 1 is_stmt 1     // kernel/arch/arm64/include/asm/atomic_ll_sc.h:114:1
	add	x8, x19, #44            // =44
	//APP
	// atomic_sub
	prfm	pstl1strm, [x8]
1:	ldxr	w9, [x8]
	sub	w9, w9, #1
	stxr	w10, w9, [x8]
	cbnz	w10, 1b
	//NO_APP
.Ltmp374:
	//DEBUG_VALUE: atomic_sub:tmp <- undef
	//DEBUG_VALUE: atomic_sub:result <- undef
	//DEBUG_VALUE: ufs_mq_remove_cp_flag:rq <- $x20
	//DEBUG_VALUE: ufs_mq_remove_cp_flag:ds_lld <- $x19
	.loc	1 875 6                 // kernel/block/mas_blk_iosched_ufs_mq.c:875:6
	ldr	x8, [x20, #272]
.Ltmp375:
	.loc	1 875 6 is_stmt 0       // kernel/block/mas_blk_iosched_ufs_mq.c:875:6
	tbz	w8, #1, .LBB11_15
	b	.LBB11_39
.Ltmp376:
.LBB11_37:
	//DEBUG_VALUE: ufs_mq_rq_inflt_update:ds_lld <- $x19
	//DEBUG_VALUE: ufs_mq_rq_inflt_update:rq <- $x20
	//DEBUG_VALUE: __ufs_mq_queue_rq:ret <- $w0
	//DEBUG_VALUE: __ufs_mq_queue_rq:rq <- $x20
	//DEBUG_VALUE: __ufs_mq_queue_rq:hctx <- $x22
	//DEBUG_VALUE: __ufs_mq_queue_rq:ds_lld <- $x19
	//DEBUG_VALUE: __ufs_mq_queue_rq:q <- $x23
	//DEBUG_VALUE: atomic_sub:i <- 1
	//DEBUG_VALUE: atomic_sub:v <- [DW_OP_plus_uconst 32, DW_OP_stack_value] $x19
	.loc	153 114 1 is_stmt 1     // kernel/arch/arm64/include/asm/atomic_ll_sc.h:114:1
	add	x8, x19, #32            // =32
	//APP
	// atomic_sub
	prfm	pstl1strm, [x8]
1:	ldxr	w9, [x8]
	sub	w9, w9, #1
	stxr	w10, w9, [x8]
	cbnz	w10, 1b
	//NO_APP
.Ltmp377:
	//DEBUG_VALUE: atomic_sub:tmp <- undef
	//DEBUG_VALUE: atomic_sub:result <- undef
	.loc	153 0 1 is_stmt 0       // kernel/arch/arm64/include/asm/atomic_ll_sc.h:0:1
	b	.LBB11_15
.Ltmp378:
.LBB11_38:
	//DEBUG_VALUE: ufs_mq_rq_inflt_update:ds_lld <- $x19
	//DEBUG_VALUE: ufs_mq_rq_inflt_update:rq <- $x20
	//DEBUG_VALUE: __ufs_mq_queue_rq:ret <- $w0
	//DEBUG_VALUE: __ufs_mq_queue_rq:rq <- $x20
	//DEBUG_VALUE: __ufs_mq_queue_rq:hctx <- $x22
	//DEBUG_VALUE: __ufs_mq_queue_rq:ds_lld <- $x19
	//DEBUG_VALUE: __ufs_mq_queue_rq:q <- $x23
	//DEBUG_VALUE: atomic_sub:v <- [DW_OP_plus_uconst 40, DW_OP_stack_value] $x19
	.loc	153 114 1               // kernel/arch/arm64/include/asm/atomic_ll_sc.h:114:1
	add	x8, x19, #40            // =40
	//APP
	// atomic_sub
	prfm	pstl1strm, [x8]
1:	ldxr	w9, [x8]
	sub	w9, w9, #1
	stxr	w10, w9, [x8]
	cbnz	w10, 1b
	//NO_APP
.Ltmp379:
	//DEBUG_VALUE: atomic_sub:tmp <- undef
	//DEBUG_VALUE: atomic_sub:result <- undef
	//DEBUG_VALUE: ufs_mq_remove_cp_flag:rq <- $x20
	//DEBUG_VALUE: ufs_mq_remove_cp_flag:ds_lld <- $x19
	.loc	1 875 6 is_stmt 1       // kernel/block/mas_blk_iosched_ufs_mq.c:875:6
	ldr	x8, [x20, #272]
.Ltmp380:
	.loc	1 875 6 is_stmt 0       // kernel/block/mas_blk_iosched_ufs_mq.c:875:6
	tbz	w8, #1, .LBB11_15
.Ltmp381:
.LBB11_39:
	//DEBUG_VALUE: ufs_mq_remove_cp_flag:ds_lld <- $x19
	//DEBUG_VALUE: ufs_mq_remove_cp_flag:rq <- $x20
	//DEBUG_VALUE: ufs_mq_rq_inflt_update:ds_lld <- $x19
	//DEBUG_VALUE: ufs_mq_rq_inflt_update:rq <- $x20
	//DEBUG_VALUE: __ufs_mq_queue_rq:ret <- $w0
	//DEBUG_VALUE: __ufs_mq_queue_rq:rq <- $x20
	//DEBUG_VALUE: __ufs_mq_queue_rq:hctx <- $x22
	//DEBUG_VALUE: __ufs_mq_queue_rq:ds_lld <- $x19
	//DEBUG_VALUE: __ufs_mq_queue_rq:q <- $x23
	.loc	1 876 32 is_stmt 1      // kernel/block/mas_blk_iosched_ufs_mq.c:876:32
	and	x8, x8, #0xfffffffffffffffd
	str	x8, [x20, #272]
.Ltmp382:
	//DEBUG_VALUE: atomic_sub:v <- [DW_OP_plus_uconst 12, DW_OP_stack_value] $x19
	//DEBUG_VALUE: atomic_sub:i <- 1
	.loc	153 114 1               // kernel/arch/arm64/include/asm/atomic_ll_sc.h:114:1
	add	x8, x19, #12            // =12
	//APP
	// atomic_sub
	prfm	pstl1strm, [x8]
1:	ldxr	w9, [x8]
	sub	w9, w9, #1
	stxr	w10, w9, [x8]
	cbnz	w10, 1b
	//NO_APP
.Ltmp383:
	//DEBUG_VALUE: atomic_sub:tmp <- undef
	//DEBUG_VALUE: atomic_sub:result <- undef
	.loc	153 0 1 is_stmt 0       // kernel/arch/arm64/include/asm/atomic_ll_sc.h:0:1
	b	.LBB11_15
.Ltmp384:
.LBB11_40:
	//DEBUG_VALUE: ufs_mq_rq_inflt_update:ds_lld <- $x19
	//DEBUG_VALUE: ufs_mq_rq_inflt_update:rq <- $x20
	//DEBUG_VALUE: __ufs_mq_queue_rq:ret <- $w0
	//DEBUG_VALUE: __ufs_mq_queue_rq:rq <- $x20
	//DEBUG_VALUE: __ufs_mq_queue_rq:hctx <- $x22
	//DEBUG_VALUE: __ufs_mq_queue_rq:ds_lld <- $x19
	//DEBUG_VALUE: __ufs_mq_queue_rq:q <- $x23
	//DEBUG_VALUE: atomic_sub:i <- 1
	//DEBUG_VALUE: atomic_sub:v <- [DW_OP_plus_uconst 36, DW_OP_stack_value] $x19
	.loc	153 114 1               // kernel/arch/arm64/include/asm/atomic_ll_sc.h:114:1
	add	x8, x19, #36            // =36
	//APP
	// atomic_sub
	prfm	pstl1strm, [x8]
1:	ldxr	w9, [x8]
	sub	w9, w9, #1
	stxr	w10, w9, [x8]
	cbnz	w10, 1b
	//NO_APP
.Ltmp385:
	//DEBUG_VALUE: atomic_sub:tmp <- undef
	//DEBUG_VALUE: atomic_sub:result <- undef
	.loc	153 0 1                 // kernel/arch/arm64/include/asm/atomic_ll_sc.h:0:1
	b	.LBB11_15
.Ltmp386:
.Lfunc_end11:
	.size	__ufs_mq_queue_rq, .Lfunc_end11-__ufs_mq_queue_rq
	.cfi_endproc
                                        // -- End function
	.section	.text.ufs_mq_insert_sync_list,"ax",@progbits
	.p2align	2               // -- Begin function ufs_mq_insert_sync_list
	.type	ufs_mq_insert_sync_list,@function
ufs_mq_insert_sync_list:                // @ufs_mq_insert_sync_list
.Lfunc_begin12:
	.loc	1 1378 0 is_stmt 1      // kernel/block/mas_blk_iosched_ufs_mq.c:1378:0
	.cfi_startproc
// %bb.0:
	//DEBUG_VALUE: ufs_mq_insert_sync_list:rq <- $x0
	//DEBUG_VALUE: ufs_mq_insert_sync_list:q <- $x1
	//DEBUG_VALUE: ufs_mq_insert_sync_list:q <- $x1
	str	x21, [sp, #-48]!        // 8-byte Folded Spill
	stp	x20, x19, [sp, #16]     // 16-byte Folded Spill
	stp	x29, x30, [sp, #32]     // 16-byte Folded Spill
	add	x29, sp, #32            // =32
	.cfi_def_cfa w29, 16
	.cfi_offset w30, -8
	.cfi_offset w29, -16
	.cfi_offset w19, -24
	.cfi_offset w20, -32
	.cfi_offset w21, -48
.Ltmp387:
	.loc	1 1381 44 prologue_end  // kernel/block/mas_blk_iosched_ufs_mq.c:1381:44
	ldr	x8, [x1, #1800]
.Ltmp388:
	//DEBUG_VALUE: ufs_mq_insert_sync_list:sched_ds <- $x8
	.loc	1 1384 2                // kernel/block/mas_blk_iosched_ufs_mq.c:1384:2
	orr	w1, wzr, #0x8
.Ltmp389:
	.loc	1 0 2 is_stmt 0         // kernel/block/mas_blk_iosched_ufs_mq.c:0:2
	mov	x20, x0
.Ltmp390:
	//DEBUG_VALUE: ufs_mq_insert_sync_list:rq <- $x20
	.loc	1 1382 50 is_stmt 1     // kernel/block/mas_blk_iosched_ufs_mq.c:1382:50
	ldr	x21, [x8, #280]
.Ltmp391:
	//DEBUG_VALUE: ufs_mq_insert_sync_list:ds_lld <- $x21
	//DEBUG_VALUE: __add_vip_rq_to_list:ds_lld <- $x21
	//DEBUG_VALUE: atomic_add:v <- [DW_OP_plus_uconst 88, DW_OP_stack_value] $x21
	//DEBUG_VALUE: atomic_add:v <- [DW_OP_plus_uconst 88, DW_OP_stack_value] $x21
	//DEBUG_VALUE: ufs_mq_order_insert_sync_list:ds_lld <- $x21
	//DEBUG_VALUE: atomic_add:v <- [DW_OP_plus_uconst 112, DW_OP_stack_value] $x21
	//DEBUG_VALUE: spin_unlock_irqrestore:lock <- [DW_OP_plus_uconst 48, DW_OP_stack_value] $x21
	.loc	1 1384 2                // kernel/block/mas_blk_iosched_ufs_mq.c:1384:2
	bl	mas_blk_latency_req_check
.Ltmp392:
	//DEBUG_VALUE: spinlock_check:lock <- [DW_OP_plus_uconst 48, DW_OP_stack_value] $x21
	.loc	162 306 16              // kernel/include/linux/spinlock.h:306:16
	add	x19, x21, #48           // =48
.Ltmp393:
	.loc	1 1386 2                // kernel/block/mas_blk_iosched_ufs_mq.c:1386:2
	mov	x0, x19
	bl	_raw_spin_lock_irqsave
.Ltmp394:
	.loc	1 1387 10               // kernel/block/mas_blk_iosched_ufs_mq.c:1387:10
	ldr	w8, [x20, #84]
.Ltmp395:
	.loc	1 1386 2                // kernel/block/mas_blk_iosched_ufs_mq.c:1386:2
	mov	x1, x0
.Ltmp396:
	//DEBUG_VALUE: ufs_mq_insert_sync_list:flags <- $x1
	//DEBUG_VALUE: spin_unlock_irqrestore:flags <- $x1
	.loc	1 1387 6                // kernel/block/mas_blk_iosched_ufs_mq.c:1387:6
	tbnz	w8, #23, .LBB12_3
.Ltmp397:
// %bb.1:
	//DEBUG_VALUE: ufs_mq_insert_sync_list:flags <- $x1
	//DEBUG_VALUE: ufs_mq_insert_sync_list:ds_lld <- $x21
	//DEBUG_VALUE: ufs_mq_insert_sync_list:rq <- $x20
	.loc	1 0 6 is_stmt 0         // kernel/block/mas_blk_iosched_ufs_mq.c:0:6
	mov	w9, #4096
	movk	w9, #64, lsl #16
.Ltmp398:
	.loc	1 1390 27 is_stmt 1     // kernel/block/mas_blk_iosched_ufs_mq.c:1390:27
	tst	x8, x9
.Ltmp399:
	.loc	1 1390 13 is_stmt 0     // kernel/block/mas_blk_iosched_ufs_mq.c:1390:13
	b.eq	.LBB12_9
.Ltmp400:
// %bb.2:
	//DEBUG_VALUE: ufs_mq_insert_sync_list:flags <- $x1
	//DEBUG_VALUE: ufs_mq_insert_sync_list:ds_lld <- $x21
	//DEBUG_VALUE: ufs_mq_insert_sync_list:rq <- $x20
	//DEBUG_VALUE: list_add_tail:new <- $x20
	.loc	157 93 24 is_stmt 1     // kernel/include/linux/list.h:93:24
	ldr	x8, [x21, #80]
.Ltmp401:
	.loc	1 1391 42               // kernel/block/mas_blk_iosched_ufs_mq.c:1391:42
	add	x9, x21, #72            // =72
.Ltmp402:
	//DEBUG_VALUE: list_add_tail:head <- $x9
	//DEBUG_VALUE: __list_add:next <- $x9
	//DEBUG_VALUE: __list_add:prev <- $x8
	//DEBUG_VALUE: __list_add:new <- $x20
	.loc	157 63 13               // kernel/include/linux/list.h:63:13
	str	x20, [x21, #80]
	//DEBUG_VALUE: list_add_tail:new <- $x20
	.loc	157 64 12               // kernel/include/linux/list.h:64:12
	stp	x9, x8, [x20]
.Ltmp403:
	//DEBUG_VALUE: __write_once_size:p <- $x8
	//DEBUG_VALUE: __write_once_size:size <- 8
	//DEBUG_VALUE: __write_once_size:res <- undef
	.loc	154 210 31              // kernel/include/linux/compiler.h:210:31
	str	x20, [x8]
.Ltmp404:
	//DEBUG_VALUE: atomic_add:i <- 1
	.loc	153 113 1               // kernel/arch/arm64/include/asm/atomic_ll_sc.h:113:1
	add	x8, x21, #88            // =88
.Ltmp405:
	//APP
	// atomic_add
	prfm	pstl1strm, [x8]
1:	ldxr	w9, [x8]
	add	w9, w9, #1
	stxr	w10, w9, [x8]
	cbnz	w10, 1b
	//NO_APP
.Ltmp406:
	//DEBUG_VALUE: atomic_add:tmp <- undef
	//DEBUG_VALUE: atomic_add:result <- undef
	.loc	153 0 1 is_stmt 0       // kernel/arch/arm64/include/asm/atomic_ll_sc.h:0:1
	b	.LBB12_24
.Ltmp407:
.LBB12_3:
	//DEBUG_VALUE: ufs_mq_insert_sync_list:flags <- $x1
	//DEBUG_VALUE: __add_vip_rq_to_list:ds_lld <- $x21
	//DEBUG_VALUE: ufs_mq_insert_sync_list:ds_lld <- $x21
	//DEBUG_VALUE: ufs_mq_insert_sync_list:rq <- $x20
	//DEBUG_VALUE: __add_vip_rq_to_list:rq <- $x20
	//DEBUG_VALUE: __add_vip_rq_to_list:pos <- 0
	//DEBUG_VALUE: __read_once_size:res <- undef
	//DEBUG_VALUE: __read_once_size:size <- 8
	//DEBUG_VALUE: __list_add:next <- undef
	//DEBUG_VALUE: list_is_last:head <- undef
	//DEBUG_VALUE: __list_add:next <- undef
	//DEBUG_VALUE: list_add_tail:head <- undef
	//DEBUG_VALUE: list_empty:head <- undef
	//DEBUG_VALUE: __read_once_size:p <- undef
	.loc	154 183 2 is_stmt 1     // kernel/include/linux/compiler.h:183:2
	mov	x9, x21
	ldr	x8, [x9, #72]!
.Ltmp408:
	//DEBUG_VALUE: __add_vip_rq_to_list:pos <- $x8
	.loc	1 1301 6                // kernel/block/mas_blk_iosched_ufs_mq.c:1301:6
	cmp	x9, x8
	b.eq	.LBB12_19
.Ltmp409:
// %bb.4:
	//DEBUG_VALUE: __add_vip_rq_to_list:pos <- $x8
	//DEBUG_VALUE: __add_vip_rq_to_list:rq <- $x20
	//DEBUG_VALUE: ufs_mq_insert_sync_list:flags <- $x1
	//DEBUG_VALUE: __add_vip_rq_to_list:ds_lld <- $x21
	//DEBUG_VALUE: ufs_mq_insert_sync_list:ds_lld <- $x21
	//DEBUG_VALUE: ufs_mq_insert_sync_list:rq <- $x20
	.loc	1 1306 2                // kernel/block/mas_blk_iosched_ufs_mq.c:1306:2
	cmp	x8, x9
	b.eq	.LBB12_21
.Ltmp410:
// %bb.5:
	//DEBUG_VALUE: __add_vip_rq_to_list:pos <- $x8
	//DEBUG_VALUE: __add_vip_rq_to_list:rq <- $x20
	//DEBUG_VALUE: ufs_mq_insert_sync_list:flags <- $x1
	//DEBUG_VALUE: __add_vip_rq_to_list:ds_lld <- $x21
	//DEBUG_VALUE: ufs_mq_insert_sync_list:ds_lld <- $x21
	//DEBUG_VALUE: ufs_mq_insert_sync_list:rq <- $x20
	//DEBUG_VALUE: list_is_last:list <- $x8
	.loc	1 1307 7                // kernel/block/mas_blk_iosched_ufs_mq.c:1307:7
	ldrb	w10, [x8, #86]
	tbz	w10, #7, .LBB12_8
.Ltmp411:
.LBB12_6:                               // =>This Inner Loop Header: Depth=1
	//DEBUG_VALUE: list_is_last:list <- $x8
	//DEBUG_VALUE: __add_vip_rq_to_list:pos <- $x8
	//DEBUG_VALUE: __add_vip_rq_to_list:rq <- $x20
	//DEBUG_VALUE: ufs_mq_insert_sync_list:flags <- $x1
	//DEBUG_VALUE: __add_vip_rq_to_list:ds_lld <- $x21
	//DEBUG_VALUE: ufs_mq_insert_sync_list:ds_lld <- $x21
	//DEBUG_VALUE: ufs_mq_insert_sync_list:rq <- $x20
	.loc	157 205 15              // kernel/include/linux/list.h:205:15
	ldr	x10, [x8]
.Ltmp412:
	.loc	1 1311 7                // kernel/block/mas_blk_iosched_ufs_mq.c:1311:7
	cmp	x10, x9
	b.eq	.LBB12_20
.Ltmp413:
// %bb.7:                               //   in Loop: Header=BB12_6 Depth=1
	//DEBUG_VALUE: list_is_last:list <- $x8
	//DEBUG_VALUE: __add_vip_rq_to_list:pos <- $x8
	//DEBUG_VALUE: __add_vip_rq_to_list:rq <- $x20
	//DEBUG_VALUE: ufs_mq_insert_sync_list:flags <- $x1
	//DEBUG_VALUE: __add_vip_rq_to_list:ds_lld <- $x21
	//DEBUG_VALUE: ufs_mq_insert_sync_list:ds_lld <- $x21
	//DEBUG_VALUE: ufs_mq_insert_sync_list:rq <- $x20
	.loc	1 0 7 is_stmt 0         // kernel/block/mas_blk_iosched_ufs_mq.c:0:7
	mov	x8, x10
.Ltmp414:
	//DEBUG_VALUE: list_is_last:list <- $x8
	//DEBUG_VALUE: __add_vip_rq_to_list:pos <- $x8
	.loc	1 1307 7 is_stmt 1      // kernel/block/mas_blk_iosched_ufs_mq.c:1307:7
	ldrb	w10, [x10, #86]
	tbnz	w10, #7, .LBB12_6
.Ltmp415:
.LBB12_8:
	//DEBUG_VALUE: __add_vip_rq_to_list:pos <- $x8
	//DEBUG_VALUE: __add_vip_rq_to_list:rq <- $x20
	//DEBUG_VALUE: ufs_mq_insert_sync_list:flags <- $x1
	//DEBUG_VALUE: __add_vip_rq_to_list:ds_lld <- $x21
	//DEBUG_VALUE: ufs_mq_insert_sync_list:ds_lld <- $x21
	//DEBUG_VALUE: ufs_mq_insert_sync_list:rq <- $x20
	//DEBUG_VALUE: list_add_tail:head <- $x8
	//DEBUG_VALUE: list_add_tail:new <- $x20
	.loc	157 93 24               // kernel/include/linux/list.h:93:24
	ldr	x9, [x8, #8]
.Ltmp416:
	//DEBUG_VALUE: __list_add:prev <- $x9
	//DEBUG_VALUE: __list_add:new <- $x20
	//DEBUG_VALUE: __list_add:next <- $x8
	.loc	157 63 13               // kernel/include/linux/list.h:63:13
	str	x20, [x8, #8]
	.loc	157 64 12               // kernel/include/linux/list.h:64:12
	stp	x8, x9, [x20]
.Ltmp417:
	//DEBUG_VALUE: __write_once_size:p <- $x9
	//DEBUG_VALUE: __write_once_size:size <- 8
	//DEBUG_VALUE: __write_once_size:res <- undef
	.loc	154 210 31              // kernel/include/linux/compiler.h:210:31
	str	x20, [x9]
	b	.LBB12_21
.Ltmp418:
.LBB12_9:
	//DEBUG_VALUE: ufs_mq_insert_sync_list:flags <- $x1
	//DEBUG_VALUE: ufs_mq_insert_sync_list:ds_lld <- $x21
	//DEBUG_VALUE: ufs_mq_insert_sync_list:rq <- $x20
	//DEBUG_VALUE: ufs_mq_order_insert_sync_list:rq <- $x20
	//DEBUG_VALUE: __read_once_size:res <- undef
	//DEBUG_VALUE: __read_once_size:size <- 8
	//DEBUG_VALUE: __list_add:next <- undef
	//DEBUG_VALUE: list_add_tail:head <- undef
	//DEBUG_VALUE: __list_add:next <- undef
	//DEBUG_VALUE: list_add_tail:head <- undef
	//DEBUG_VALUE: ufs_mq_order_insert_sync_list:target_list <- undef
	//DEBUG_VALUE: list_empty:head <- undef
	//DEBUG_VALUE: __read_once_size:p <- undef
	.loc	154 183 2               // kernel/include/linux/compiler.h:183:2
	mov	x8, x21
	ldr	x9, [x8, #96]!
.Ltmp419:
	//DEBUG_VALUE: pos <- $x9
	.loc	1 1325 31               // kernel/block/mas_blk_iosched_ufs_mq.c:1325:31
	cmp	x8, x9
	b.eq	.LBB12_22
.Ltmp420:
// %bb.10:
	//DEBUG_VALUE: ufs_mq_order_insert_sync_list:rq <- $x20
	//DEBUG_VALUE: ufs_mq_insert_sync_list:flags <- $x1
	//DEBUG_VALUE: ufs_mq_insert_sync_list:ds_lld <- $x21
	//DEBUG_VALUE: ufs_mq_insert_sync_list:rq <- $x20
	.loc	1 1325 46 is_stmt 0     // kernel/block/mas_blk_iosched_ufs_mq.c:1325:46
	ldr	w10, [x20, #424]
.Ltmp421:
	//DEBUG_VALUE: ufs_mq_nr_before:nr1 <- $w10
	.loc	1 1325 6                // kernel/block/mas_blk_iosched_ufs_mq.c:1325:6
	cbz	w10, .LBB12_22
.Ltmp422:
// %bb.11:
	//DEBUG_VALUE: ufs_mq_order_insert_sync_list:rq <- $x20
	//DEBUG_VALUE: ufs_mq_insert_sync_list:flags <- $x1
	//DEBUG_VALUE: ufs_mq_insert_sync_list:ds_lld <- $x21
	//DEBUG_VALUE: ufs_mq_insert_sync_list:rq <- $x20
	//DEBUG_VALUE: pos <- 0
	.loc	1 1327 3 is_stmt 1      // kernel/block/mas_blk_iosched_ufs_mq.c:1327:3
	cmp	x9, x8
	b.eq	.LBB12_18
.Ltmp423:
// %bb.12:
	//DEBUG_VALUE: ufs_mq_order_insert_sync_list:rq <- $x20
	//DEBUG_VALUE: ufs_mq_insert_sync_list:flags <- $x1
	//DEBUG_VALUE: ufs_mq_insert_sync_list:ds_lld <- $x21
	//DEBUG_VALUE: ufs_mq_insert_sync_list:rq <- $x20
	.loc	1 1328 22               // kernel/block/mas_blk_iosched_ufs_mq.c:1328:22
	ldr	w11, [x9, #424]
.Ltmp424:
	//DEBUG_VALUE: ufs_mq_nr_before:nr2 <- $w11
	.loc	1 1328 8 is_stmt 0      // kernel/block/mas_blk_iosched_ufs_mq.c:1328:8
	cbz	w11, .LBB12_14
.Ltmp425:
// %bb.13:
	//DEBUG_VALUE: ufs_mq_order_insert_sync_list:rq <- $x20
	//DEBUG_VALUE: ufs_mq_insert_sync_list:flags <- $x1
	//DEBUG_VALUE: ufs_mq_insert_sync_list:ds_lld <- $x21
	//DEBUG_VALUE: ufs_mq_insert_sync_list:rq <- $x20
	.loc	1 0 0                   // kernel/block/mas_blk_iosched_ufs_mq.c:0:0
	sub	w11, w10, w11
	.loc	1 1328 8                // kernel/block/mas_blk_iosched_ufs_mq.c:1328:8
	tbnz	w11, #31, .LBB12_17
.Ltmp426:
.LBB12_14:                              // =>This Inner Loop Header: Depth=1
	//DEBUG_VALUE: ufs_mq_order_insert_sync_list:rq <- $x20
	//DEBUG_VALUE: ufs_mq_insert_sync_list:flags <- $x1
	//DEBUG_VALUE: ufs_mq_insert_sync_list:ds_lld <- $x21
	//DEBUG_VALUE: ufs_mq_insert_sync_list:rq <- $x20
	//DEBUG_VALUE: __mptr <- undef
	.loc	1 0 0                   // kernel/block/mas_blk_iosched_ufs_mq.c:0:0
	ldr	x9, [x9]
.Ltmp427:
	//DEBUG_VALUE: pos <- $x9
	.loc	1 1327 3 is_stmt 1      // kernel/block/mas_blk_iosched_ufs_mq.c:1327:3
	cmp	x9, x8
	b.eq	.LBB12_18
.Ltmp428:
// %bb.15:                              //   in Loop: Header=BB12_14 Depth=1
	//DEBUG_VALUE: pos <- $x9
	//DEBUG_VALUE: ufs_mq_order_insert_sync_list:rq <- $x20
	//DEBUG_VALUE: ufs_mq_insert_sync_list:flags <- $x1
	//DEBUG_VALUE: ufs_mq_insert_sync_list:ds_lld <- $x21
	//DEBUG_VALUE: ufs_mq_insert_sync_list:rq <- $x20
	.loc	1 1328 22               // kernel/block/mas_blk_iosched_ufs_mq.c:1328:22
	ldr	w11, [x9, #424]
.Ltmp429:
	//DEBUG_VALUE: ufs_mq_nr_before:nr2 <- $w11
	.loc	1 1328 8 is_stmt 0      // kernel/block/mas_blk_iosched_ufs_mq.c:1328:8
	cbz	w11, .LBB12_14
.Ltmp430:
// %bb.16:                              //   in Loop: Header=BB12_14 Depth=1
	//DEBUG_VALUE: pos <- $x9
	//DEBUG_VALUE: ufs_mq_order_insert_sync_list:rq <- $x20
	//DEBUG_VALUE: ufs_mq_insert_sync_list:flags <- $x1
	//DEBUG_VALUE: ufs_mq_insert_sync_list:ds_lld <- $x21
	//DEBUG_VALUE: ufs_mq_insert_sync_list:rq <- $x20
	.loc	1 0 0                   // kernel/block/mas_blk_iosched_ufs_mq.c:0:0
	sub	w11, w10, w11
	.loc	1 1328 8                // kernel/block/mas_blk_iosched_ufs_mq.c:1328:8
	tbz	w11, #31, .LBB12_14
.Ltmp431:
.LBB12_17:
	//DEBUG_VALUE: ufs_mq_order_insert_sync_list:rq <- $x20
	//DEBUG_VALUE: ufs_mq_insert_sync_list:flags <- $x1
	//DEBUG_VALUE: ufs_mq_insert_sync_list:ds_lld <- $x21
	//DEBUG_VALUE: ufs_mq_insert_sync_list:rq <- $x20
	.loc	1 0 8                   // kernel/block/mas_blk_iosched_ufs_mq.c:0:8
	mov	x8, x9
.Ltmp432:
.LBB12_18:
	//DEBUG_VALUE: ufs_mq_order_insert_sync_list:rq <- $x20
	//DEBUG_VALUE: ufs_mq_insert_sync_list:flags <- $x1
	//DEBUG_VALUE: ufs_mq_insert_sync_list:ds_lld <- $x21
	//DEBUG_VALUE: ufs_mq_insert_sync_list:rq <- $x20
	//DEBUG_VALUE: list_add_tail:new <- $x20
	ldr	x10, [x9, #8]
.Ltmp433:
	//DEBUG_VALUE: __list_add:prev <- $x10
	//DEBUG_VALUE: __list_add:new <- $x20
	str	x20, [x9, #8]
.Ltmp434:
	//DEBUG_VALUE: __write_once_size:size <- 8
	//DEBUG_VALUE: __write_once_size:res <- undef
	b	.LBB12_23
.Ltmp435:
.LBB12_19:
	//DEBUG_VALUE: __add_vip_rq_to_list:pos <- $x8
	//DEBUG_VALUE: __add_vip_rq_to_list:rq <- $x20
	//DEBUG_VALUE: ufs_mq_insert_sync_list:flags <- $x1
	//DEBUG_VALUE: __add_vip_rq_to_list:ds_lld <- $x21
	//DEBUG_VALUE: ufs_mq_insert_sync_list:ds_lld <- $x21
	//DEBUG_VALUE: ufs_mq_insert_sync_list:rq <- $x20
	//DEBUG_VALUE: list_add_tail:new <- $x20
	.loc	157 93 24 is_stmt 1     // kernel/include/linux/list.h:93:24
	ldr	x8, [x21, #80]
.Ltmp436:
.LBB12_20:
	//DEBUG_VALUE: __add_vip_rq_to_list:rq <- $x20
	//DEBUG_VALUE: ufs_mq_insert_sync_list:flags <- $x1
	//DEBUG_VALUE: __add_vip_rq_to_list:ds_lld <- $x21
	//DEBUG_VALUE: ufs_mq_insert_sync_list:ds_lld <- $x21
	//DEBUG_VALUE: ufs_mq_insert_sync_list:rq <- $x20
	//DEBUG_VALUE: list_is_last:list <- $x8
	//DEBUG_VALUE: __list_add:prev <- $x8
	//DEBUG_VALUE: list_add:head <- $x8
	//DEBUG_VALUE: list_add:new <- $x20
	//DEBUG_VALUE: __list_add:new <- $x20
	.loc	1 0 0 is_stmt 0         // kernel/block/mas_blk_iosched_ufs_mq.c:0:0
	str	x20, [x21, #80]
	stp	x9, x8, [x20]
.Ltmp437:
	//DEBUG_VALUE: __write_once_size:p <- $x8
	//DEBUG_VALUE: __write_once_size:size <- 8
	//DEBUG_VALUE: __write_once_size:res <- undef
	str	x20, [x8]
.Ltmp438:
.LBB12_21:
	//DEBUG_VALUE: ufs_mq_insert_sync_list:flags <- $x1
	//DEBUG_VALUE: ufs_mq_insert_sync_list:ds_lld <- $x21
	//DEBUG_VALUE: ufs_mq_insert_sync_list:rq <- $x20
	//DEBUG_VALUE: atomic_add:i <- 1
	.loc	153 113 1 is_stmt 1     // kernel/arch/arm64/include/asm/atomic_ll_sc.h:113:1
	add	x8, x21, #88            // =88
	//APP
	// atomic_add
	prfm	pstl1strm, [x8]
1:	ldxr	w9, [x8]
	add	w9, w9, #1
	stxr	w10, w9, [x8]
	cbnz	w10, 1b
	//NO_APP
.Ltmp439:
	//DEBUG_VALUE: atomic_add:tmp <- undef
	//DEBUG_VALUE: atomic_add:result <- undef
	.loc	153 0 1 is_stmt 0       // kernel/arch/arm64/include/asm/atomic_ll_sc.h:0:1
	b	.LBB12_24
.Ltmp440:
.LBB12_22:
	//DEBUG_VALUE: ufs_mq_order_insert_sync_list:rq <- $x20
	//DEBUG_VALUE: ufs_mq_insert_sync_list:flags <- $x1
	//DEBUG_VALUE: ufs_mq_insert_sync_list:ds_lld <- $x21
	//DEBUG_VALUE: ufs_mq_insert_sync_list:rq <- $x20
	//DEBUG_VALUE: list_add_tail:new <- $x20
	.loc	157 93 24 is_stmt 1     // kernel/include/linux/list.h:93:24
	ldr	x10, [x21, #104]
.Ltmp441:
	//DEBUG_VALUE: __list_add:prev <- $x10
	//DEBUG_VALUE: __list_add:new <- $x20
	.loc	157 63 13               // kernel/include/linux/list.h:63:13
	str	x20, [x21, #104]
.Ltmp442:
	//DEBUG_VALUE: __write_once_size:size <- 8
	//DEBUG_VALUE: __write_once_size:res <- undef
.LBB12_23:
	//DEBUG_VALUE: ufs_mq_order_insert_sync_list:rq <- $x20
	//DEBUG_VALUE: ufs_mq_insert_sync_list:flags <- $x1
	//DEBUG_VALUE: ufs_mq_insert_sync_list:ds_lld <- $x21
	//DEBUG_VALUE: ufs_mq_insert_sync_list:rq <- $x20
	.loc	1 0 0 is_stmt 0         // kernel/block/mas_blk_iosched_ufs_mq.c:0:0
	stp	x8, x10, [x20]
.Ltmp443:
	//DEBUG_VALUE: __write_once_size:p <- $x10
	str	x20, [x10]
.Ltmp444:
	//DEBUG_VALUE: atomic_add:i <- 1
	.loc	153 113 1 is_stmt 1     // kernel/arch/arm64/include/asm/atomic_ll_sc.h:113:1
	add	x8, x21, #112           // =112
	//APP
	// atomic_add
	prfm	pstl1strm, [x8]
1:	ldxr	w9, [x8]
	add	w9, w9, #1
	stxr	w10, w9, [x8]
	cbnz	w10, 1b
	//NO_APP
.Ltmp445:
	//DEBUG_VALUE: atomic_add:tmp <- undef
	//DEBUG_VALUE: atomic_add:result <- undef
.LBB12_24:
	//DEBUG_VALUE: ufs_mq_insert_sync_list:flags <- $x1
	//DEBUG_VALUE: ufs_mq_insert_sync_list:ds_lld <- $x21
	//DEBUG_VALUE: ufs_mq_insert_sync_list:rq <- $x20
	.loc	162 372 2               // kernel/include/linux/spinlock.h:372:2
	mov	x0, x19
	bl	_raw_spin_unlock_irqrestore
.Ltmp446:
	.loc	1 1398 1                // kernel/block/mas_blk_iosched_ufs_mq.c:1398:1
	ldp	x29, x30, [sp, #32]     // 16-byte Folded Reload
	ldp	x20, x19, [sp, #16]     // 16-byte Folded Reload
.Ltmp447:
	ldr	x21, [sp], #48          // 8-byte Folded Reload
.Ltmp448:
	ret
.Ltmp449:
.Lfunc_end12:
	.size	ufs_mq_insert_sync_list, .Lfunc_end12-ufs_mq_insert_sync_list
	.cfi_endproc
                                        // -- End function
	.section	.text.ufs_mq_make_request,"ax",@progbits
	.hidden	ufs_mq_make_request     // -- Begin function ufs_mq_make_request
	.globl	ufs_mq_make_request
	.p2align	2
	.type	ufs_mq_make_request,@function
ufs_mq_make_request:                    // @ufs_mq_make_request
.Lfunc_begin13:
	.loc	1 1702 0                // kernel/block/mas_blk_iosched_ufs_mq.c:1702:0
	.cfi_startproc
// %bb.0:
	//DEBUG_VALUE: ufs_mq_make_request:q <- $x0
	//DEBUG_VALUE: ufs_mq_make_request:bio <- $x1
	sub	sp, sp, #176            // =176
	stp	x26, x25, [sp, #96]     // 16-byte Folded Spill
	stp	x24, x23, [sp, #112]    // 16-byte Folded Spill
	stp	x22, x21, [sp, #128]    // 16-byte Folded Spill
	stp	x20, x19, [sp, #144]    // 16-byte Folded Spill
	stp	x29, x30, [sp, #160]    // 16-byte Folded Spill
	add	x29, sp, #160           // =160
	.cfi_def_cfa w29, 16
	.cfi_offset w30, -8
	.cfi_offset w29, -16
	.cfi_offset w19, -24
	.cfi_offset w20, -32
	.cfi_offset w21, -40
	.cfi_offset w22, -48
	.cfi_offset w23, -56
	.cfi_offset w24, -64
	.cfi_offset w25, -72
	.cfi_offset w26, -80
	adrp	x8, __stack_chk_guard
	ldr	x8, [x8, :lo12:__stack_chk_guard]
	mov	w9, #253
.Ltmp450:
	//DEBUG_VALUE: ufs_mq_bio_is_sync:bio <- $x19
	//DEBUG_VALUE: ufs_mq_bio_is_sync:q <- undef
	//DEBUG_VALUE: ufs_mq_bio_is_sync:dispatch_op <- [DW_OP_constu 255, DW_OP_and, DW_OP_stack_value] $w8
	mov	x19, x1
.Ltmp451:
	mov	x20, x0
.Ltmp452:
	//DEBUG_VALUE: ufs_mq_make_request:q <- $x20
	stur	x8, [x29, #-72]
.Ltmp453:
	//DEBUG_VALUE: ufs_mq_make_request:bio <- $x19
	.loc	1 1703 27 prologue_end  // kernel/block/mas_blk_iosched_ufs_mq.c:1703:27
	stp	xzr, xzr, [sp, #56]
	stp	xzr, xzr, [sp, #40]
	stp	xzr, xzr, [sp, #24]
	str	xzr, [sp, #16]
.Ltmp454:
	//DEBUG_VALUE: ufs_mq_make_request:wb_acct <- 0
	//DEBUG_VALUE: ufs_mq_make_request:same_queue_rq <- 0
	//DEBUG_VALUE: ufs_mq_make_request:rq <- 0
	.loc	1 1710 44               // kernel/block/mas_blk_iosched_ufs_mq.c:1710:44
	ldr	w8, [x1, #16]
.Ltmp455:
	.loc	1 1411 33               // kernel/block/mas_blk_iosched_ufs_mq.c:1411:33
	tst	w8, w9
	b.eq	.LBB13_3
.Ltmp456:
// %bb.1:
	//DEBUG_VALUE: ufs_mq_make_request:bio <- $x19
	//DEBUG_VALUE: ufs_mq_make_request:q <- $x20
	.loc	1 0 33 is_stmt 0        // kernel/block/mas_blk_iosched_ufs_mq.c:0:33
	mov	w9, #6144
	movk	w9, #68, lsl #16
	and	w9, w8, w9
	.loc	1 1411 33               // kernel/block/mas_blk_iosched_ufs_mq.c:1411:33
	cbnz	w9, .LBB13_3
.Ltmp457:
// %bb.2:
	//DEBUG_VALUE: ufs_mq_make_request:bio <- $x19
	//DEBUG_VALUE: ufs_mq_make_request:q <- $x20
	.loc	1 0 33                  // kernel/block/mas_blk_iosched_ufs_mq.c:0:33
	mov	x25, xzr
	.loc	1 1705 18 is_stmt 1     // kernel/block/mas_blk_iosched_ufs_mq.c:1705:18
	mov	x23, xzr
	orr	w26, wzr, #0x1
	orr	w22, wzr, #0x1
	b	.LBB13_14
.Ltmp458:
.LBB13_3:
	//DEBUG_VALUE: ufs_mq_make_request:bio <- $x19
	//DEBUG_VALUE: ufs_mq_make_request:q <- $x20
	.loc	1 1415 14               // kernel/block/mas_blk_iosched_ufs_mq.c:1415:14
	ldr	x9, [x20, #1800]
.Ltmp459:
	//DEBUG_VALUE: sched_ds <- $x9
	.loc	1 1417 15               // kernel/block/mas_blk_iosched_ufs_mq.c:1417:15
	orr	w8, w8, #0x800
	str	w8, [x19, #16]
	.loc	1 1418 46               // kernel/block/mas_blk_iosched_ufs_mq.c:1418:46
	ldr	x22, [x9, #280]
.Ltmp460:
	//DEBUG_VALUE: ufs_mq_sync_burst_dispatch_check:ds_lld <- $x22
	//DEBUG_VALUE: io_submit_intrvl_l_than:ds_lld <- $x22
	//DEBUG_VALUE: io_submit_intrvl_l_than:ds_lld <- $x22
	.loc	1 664 14                // kernel/block/mas_blk_iosched_ufs_mq.c:664:14
	bl	ktime_get
.Ltmp461:
	.loc	154 183 2               // kernel/include/linux/compiler.h:183:2
	ldr	w8, [x22, #272]
.Ltmp462:
	.loc	1 664 14                // kernel/block/mas_blk_iosched_ufs_mq.c:664:14
	mov	x21, x0
.Ltmp463:
	//DEBUG_VALUE: __read_once_size:p <- [DW_OP_plus_uconst 272, DW_OP_stack_value] $x22
	//DEBUG_VALUE: __write_once_size:p <- [DW_OP_plus_uconst 272, DW_OP_stack_value] $x22
	//DEBUG_VALUE: __write_once_size:p <- [DW_OP_plus_uconst 272, DW_OP_stack_value] $x22
	//DEBUG_VALUE: __read_once_size:size <- 4
	//DEBUG_VALUE: __read_once_size:res <- undef
	//DEBUG_VALUE: ufs_mq_sync_burst_dispatch_check:now_ktime <- $x21
	//DEBUG_VALUE: io_submit_intrvl_l_than:base <- $x21
	//DEBUG_VALUE: ktime_before:cmp1 <- $x21
	//DEBUG_VALUE: ktime_compare:cmp1 <- $x21
	//DEBUG_VALUE: io_submit_intrvl_l_than:base <- $x21
	//DEBUG_VALUE: ktime_before:cmp1 <- $x21
	//DEBUG_VALUE: ktime_compare:cmp1 <- $x21
	.loc	1 665 2                 // kernel/block/mas_blk_iosched_ufs_mq.c:665:2
	cmp	w8, #1                  // =1
	b.eq	.LBB13_7
.Ltmp464:
// %bb.4:
	//DEBUG_VALUE: ufs_mq_sync_burst_dispatch_check:now_ktime <- $x21
	//DEBUG_VALUE: ufs_mq_sync_burst_dispatch_check:ds_lld <- $x22
	//DEBUG_VALUE: ufs_mq_make_request:bio <- $x19
	//DEBUG_VALUE: ufs_mq_make_request:q <- $x20
	cbnz	w8, .LBB13_9
.Ltmp465:
// %bb.5:
	//DEBUG_VALUE: ufs_mq_sync_burst_dispatch_check:now_ktime <- $x21
	//DEBUG_VALUE: ufs_mq_sync_burst_dispatch_check:ds_lld <- $x22
	//DEBUG_VALUE: ufs_mq_make_request:bio <- $x19
	//DEBUG_VALUE: ufs_mq_make_request:q <- $x20
	//DEBUG_VALUE: io_submit_intrvl_l_than:ms <- 10
	.loc	1 544 30                // kernel/block/mas_blk_iosched_ufs_mq.c:544:30
	ldr	x8, [x22, #184]
	mov	w9, #38528
	movk	w9, #152, lsl #16
.Ltmp466:
	//DEBUG_VALUE: ktime_add_ms:msec <- 10
	//DEBUG_VALUE: ktime_add_ms:kt <- $x8
	.loc	58 200 9                // kernel/include/linux/ktime.h:200:9
	add	x8, x8, x9
.Ltmp467:
	//DEBUG_VALUE: ktime_compare:cmp2 <- $x8
	//DEBUG_VALUE: ktime_before:cmp2 <- $x8
	.loc	1 667 7                 // kernel/block/mas_blk_iosched_ufs_mq.c:667:7
	cmp	x8, x21
	b.le	.LBB13_9
.Ltmp468:
// %bb.6:
	//DEBUG_VALUE: ufs_mq_sync_burst_dispatch_check:now_ktime <- $x21
	//DEBUG_VALUE: ufs_mq_sync_burst_dispatch_check:ds_lld <- $x22
	//DEBUG_VALUE: ufs_mq_make_request:bio <- $x19
	//DEBUG_VALUE: ufs_mq_make_request:q <- $x20
	.loc	1 0 7 is_stmt 0         // kernel/block/mas_blk_iosched_ufs_mq.c:0:7
	orr	w8, wzr, #0x1
.Ltmp469:
	//DEBUG_VALUE: __write_once_size:size <- 4
	//DEBUG_VALUE: __write_once_size:res <- undef
	.loc	1 669 36 is_stmt 1      // kernel/block/mas_blk_iosched_ufs_mq.c:669:36
	str	x21, [x22, #192]
.Ltmp470:
	.loc	154 209 31              // kernel/include/linux/compiler.h:209:31
	str	w8, [x22, #272]
.Ltmp471:
	.loc	1 673 5                 // kernel/block/mas_blk_iosched_ufs_mq.c:673:5
	adrp	x8, jiffies
	ldr	x8, [x8, :lo12:jiffies]
	.loc	1 672 23                // kernel/block/mas_blk_iosched_ufs_mq.c:672:23
	add	x0, x22, #224           // =224
	.loc	1 673 13                // kernel/block/mas_blk_iosched_ufs_mq.c:673:13
	add	x1, x8, #3              // =3
	.loc	1 672 4                 // kernel/block/mas_blk_iosched_ufs_mq.c:672:4
	bl	mod_timer
	b	.LBB13_9
.Ltmp472:
.LBB13_7:
	//DEBUG_VALUE: ktime_compare:cmp1 <- $x21
	//DEBUG_VALUE: ktime_before:cmp1 <- $x21
	//DEBUG_VALUE: io_submit_intrvl_l_than:base <- $x21
	//DEBUG_VALUE: ufs_mq_sync_burst_dispatch_check:now_ktime <- $x21
	//DEBUG_VALUE: io_submit_intrvl_l_than:ds_lld <- $x22
	//DEBUG_VALUE: ufs_mq_sync_burst_dispatch_check:ds_lld <- $x22
	//DEBUG_VALUE: ufs_mq_make_request:bio <- $x19
	//DEBUG_VALUE: ufs_mq_make_request:q <- $x20
	//DEBUG_VALUE: io_submit_intrvl_l_than:ms <- 10
	.loc	1 544 30                // kernel/block/mas_blk_iosched_ufs_mq.c:544:30
	ldr	x8, [x22, #184]
	mov	w9, #38528
	movk	w9, #152, lsl #16
.Ltmp473:
	//DEBUG_VALUE: ktime_add_ms:msec <- 10
	//DEBUG_VALUE: ktime_add_ms:kt <- $x8
	.loc	58 200 9                // kernel/include/linux/ktime.h:200:9
	add	x8, x8, x9
.Ltmp474:
	//DEBUG_VALUE: ktime_compare:cmp2 <- $x8
	//DEBUG_VALUE: ktime_before:cmp2 <- $x8
	.loc	1 677 7                 // kernel/block/mas_blk_iosched_ufs_mq.c:677:7
	cmp	x8, x21
	b.le	.LBB13_9
.Ltmp475:
// %bb.8:
	//DEBUG_VALUE: ufs_mq_sync_burst_dispatch_check:now_ktime <- $x21
	//DEBUG_VALUE: ufs_mq_sync_burst_dispatch_check:ds_lld <- $x22
	//DEBUG_VALUE: ufs_mq_make_request:bio <- $x19
	//DEBUG_VALUE: ufs_mq_make_request:q <- $x20
	//DEBUG_VALUE: __write_once_size:res <- undef
	.loc	1 0 7 is_stmt 0         // kernel/block/mas_blk_iosched_ufs_mq.c:0:7
	orr	w8, wzr, #0x2
.Ltmp476:
	//DEBUG_VALUE: __write_once_size:size <- 4
	.loc	154 209 31 is_stmt 1    // kernel/include/linux/compiler.h:209:31
	str	w8, [x22, #272]
.Ltmp477:
.LBB13_9:
	//DEBUG_VALUE: ufs_mq_sync_burst_dispatch_check:now_ktime <- $x21
	//DEBUG_VALUE: ufs_mq_sync_burst_dispatch_check:ds_lld <- $x22
	//DEBUG_VALUE: ufs_mq_make_request:bio <- $x19
	//DEBUG_VALUE: ufs_mq_make_request:q <- $x20
	.loc	1 685 33                // kernel/block/mas_blk_iosched_ufs_mq.c:685:33
	str	x21, [x22, #184]
.Ltmp478:
	//DEBUG_VALUE: ufs_mq_get_plug:is_flush_fua <- undef
	//DEBUG_VALUE: ufs_mq_get_plug:bio <- $x19
	.loc	1 1685 18               // kernel/block/mas_blk_iosched_ufs_mq.c:1685:18
	ldrb	w8, [x19, #18]
	tst	w8, #0xc
	b.ne	.LBB13_12
.Ltmp479:
// %bb.10:
	//DEBUG_VALUE: ufs_mq_get_plug:bio <- $x19
	//DEBUG_VALUE: ufs_mq_make_request:bio <- $x19
	//DEBUG_VALUE: ufs_mq_make_request:q <- $x20
	//DEBUG_VALUE: ufs_mq_get_current_plug:bio <- $x19
	.file	163 "/mnt/disk/jenkins/ci/workspace/chipset_pipeline_release/opensource/component_code/vendor/huawei/extra/build/build_script/kirin_kernel_release/kernel/arch/arm64/include/asm/current.h"
	.loc	163 19 2                // kernel/arch/arm64/include/asm/current.h:19:2
	//APP
	mrs x8, sp_el0
	//NO_APP
.Ltmp480:
	//DEBUG_VALUE: get_current:sp_el0 <- $x8
	//DEBUG_VALUE: get_current:sp_el0 <- $x8
	//DEBUG_VALUE: get_current:sp_el0 <- $x8
	//DEBUG_VALUE: get_current:sp_el0 <- $x8
	//DEBUG_VALUE: get_current:sp_el0 <- $x8
	.loc	1 1570 6                // kernel/block/mas_blk_iosched_ufs_mq.c:1570:6
	ldr	x9, [x8, #2544]
.Ltmp481:
	.loc	1 1570 6 is_stmt 0      // kernel/block/mas_blk_iosched_ufs_mq.c:1570:6
	cbz	x9, .LBB13_12
.Ltmp482:
// %bb.11:
	//DEBUG_VALUE: ufs_mq_get_current_plug:bio <- $x19
	//DEBUG_VALUE: ufs_mq_get_plug:bio <- $x19
	//DEBUG_VALUE: ufs_mq_make_request:bio <- $x19
	//DEBUG_VALUE: ufs_mq_make_request:q <- $x20
	.loc	1 1572 19 is_stmt 1     // kernel/block/mas_blk_iosched_ufs_mq.c:1572:19
	ldr	w10, [x19, #56]
.Ltmp483:
	.loc	1 1572 6 is_stmt 0      // kernel/block/mas_blk_iosched_ufs_mq.c:1572:6
	cmp	w10, #128, lsl #12      // =524288
	b.ls	.LBB13_35
.Ltmp484:
.LBB13_12:
	//DEBUG_VALUE: ufs_mq_get_plug:bio <- $x19
	//DEBUG_VALUE: ufs_mq_make_request:bio <- $x19
	//DEBUG_VALUE: ufs_mq_make_request:q <- $x20
	.loc	1 0 6                   // kernel/block/mas_blk_iosched_ufs_mq.c:0:6
	mov	x25, xzr
.Ltmp485:
.LBB13_13:
	//DEBUG_VALUE: ufs_mq_make_request:bio <- $x19
	//DEBUG_VALUE: ufs_mq_make_request:q <- $x20
	mov	w22, wzr
	.loc	1 1705 18 is_stmt 1     // kernel/block/mas_blk_iosched_ufs_mq.c:1705:18
	mov	x23, xzr
	orr	w26, wzr, #0x1
.Ltmp486:
.LBB13_14:
	//DEBUG_VALUE: ufs_mq_make_request:bio <- $x19
	//DEBUG_VALUE: ufs_mq_make_request:q <- $x20
	//DEBUG_VALUE: ufs_mq_make_request:same_queue_rq <- $x23
	//DEBUG_VALUE: ufs_mq_req_add_pluglist:rq <- $x23
	//DEBUG_VALUE: ufs_mq_req_add_pluglist:sameq_rq <- $x23
	//DEBUG_VALUE: ufs_mq_make_sync_request:same_queue_rq <- $x23
	.loc	1 1730 24               // kernel/block/mas_blk_iosched_ufs_mq.c:1730:24
	ldr	x0, [x20, #88]
	.loc	1 1730 12 is_stmt 0     // kernel/block/mas_blk_iosched_ufs_mq.c:1730:12
	mov	x1, x19
	mov	x2, xzr
	bl	wbt_wait
	mov	w24, w0
.Ltmp487:
	//DEBUG_VALUE: wbt_track:wb_acct <- $w24
	//DEBUG_VALUE: ufs_mq_make_request:wb_acct <- $w24
	.loc	1 1732 2 is_stmt 1      // kernel/block/mas_blk_iosched_ufs_mq.c:1732:2
	orr	w1, wzr, #0x3
	mov	x0, x19
	bl	mas_blk_latency_bio_check
	.loc	1 1734 39               // kernel/block/mas_blk_iosched_ufs_mq.c:1734:39
	ldr	w2, [x19, #16]
.Ltmp488:
	//DEBUG_VALUE: ufs_mq_make_request:alloc_data <- [DW_OP_plus_uconst 16, DW_OP_deref] $sp
	.loc	1 1734 7 is_stmt 0      // kernel/block/mas_blk_iosched_ufs_mq.c:1734:7
	add	x3, sp, #16             // =16
	mov	x0, x20
	mov	x1, x19
	bl	blk_mq_get_request
	.loc	1 1735 6 is_stmt 1      // kernel/block/mas_blk_iosched_ufs_mq.c:1735:6
	cbz	x0, .LBB13_50
.Ltmp489:
// %bb.15:
	//DEBUG_VALUE: ufs_mq_make_request:alloc_data <- [DW_OP_plus_uconst 16, DW_OP_deref] $sp
	//DEBUG_VALUE: ufs_mq_make_request:wb_acct <- $w24
	//DEBUG_VALUE: wbt_track:wb_acct <- $w24
	//DEBUG_VALUE: ufs_mq_make_sync_request:same_queue_rq <- $x23
	//DEBUG_VALUE: ufs_mq_req_add_pluglist:sameq_rq <- $x23
	//DEBUG_VALUE: ufs_mq_req_add_pluglist:rq <- $x23
	//DEBUG_VALUE: ufs_mq_make_request:same_queue_rq <- $x23
	//DEBUG_VALUE: ufs_mq_make_request:bio <- $x19
	//DEBUG_VALUE: ufs_mq_make_request:q <- $x20
	.loc	1 1696 10               // kernel/block/mas_blk_iosched_ufs_mq.c:1696:10
	ldr	w8, [x0, #84]
.Ltmp490:
	.loc	1 0 0 is_stmt 0         // kernel/block/mas_blk_iosched_ufs_mq.c:0:0
	mov	x21, x0
.Ltmp491:
	//DEBUG_VALUE: ufs_mq_make_request:rq <- $x21
	//DEBUG_VALUE: ufs_mq_bio_to_request:rq <- $x21
	//DEBUG_VALUE: ufs_mq_bio_to_request:rq <- $x21
	//DEBUG_VALUE: blk_rq_is_scsi:rq <- $x21
	//DEBUG_VALUE: ufs_mq_merge_queue_io:rq <- $x21
	//DEBUG_VALUE: ufs_mq_sync_queue_rq:rq <- $x21
	//DEBUG_VALUE: ufs_mq_req_add_pluglist:disp_rq <- $x21
	//DEBUG_VALUE: ufs_mq_bio_to_request:rq <- $x21
	//DEBUG_VALUE: ufs_mq_make_sync_request:rq <- $x21
	//DEBUG_VALUE: ufs_mq_bio_to_request:rq <- $x21
	//DEBUG_VALUE: ufs_mq_make_flush_request:rq <- $x21
	//DEBUG_VALUE: wbt_track:stat <- [DW_OP_plus_uconst 488, DW_OP_stack_value] $x21
	//DEBUG_VALUE: ufs_mq_need_set_req_nr:rq <- $x21
	.loc	1 1696 10               // kernel/block/mas_blk_iosched_ufs_mq.c:1696:10
	and	w8, w8, #0xff
	.loc	1 1696 38               // kernel/block/mas_blk_iosched_ufs_mq.c:1696:38
	orr	w8, w8, #0x2
.Ltmp492:
	.loc	1 1749 6 is_stmt 1      // kernel/block/mas_blk_iosched_ufs_mq.c:1749:6
	cmp	w8, #3                  // =3
	b.ne	.LBB13_17
.Ltmp493:
// %bb.16:
	//DEBUG_VALUE: ufs_mq_make_request:rq <- $x21
	//DEBUG_VALUE: ufs_mq_make_request:alloc_data <- [DW_OP_plus_uconst 16, DW_OP_deref] $sp
	//DEBUG_VALUE: ufs_mq_make_request:wb_acct <- $w24
	//DEBUG_VALUE: ufs_mq_make_request:same_queue_rq <- $x23
	//DEBUG_VALUE: ufs_mq_make_request:bio <- $x19
	//DEBUG_VALUE: ufs_mq_make_request:q <- $x20
	.loc	1 1750 3                // kernel/block/mas_blk_iosched_ufs_mq.c:1750:3
	mov	x0, x21
	bl	blk_req_set_make_req_nr
.Ltmp494:
.LBB13_17:
	//DEBUG_VALUE: ufs_mq_make_request:rq <- $x21
	//DEBUG_VALUE: ufs_mq_make_request:alloc_data <- [DW_OP_plus_uconst 16, DW_OP_deref] $sp
	//DEBUG_VALUE: ufs_mq_make_request:wb_acct <- $w24
	//DEBUG_VALUE: ufs_mq_make_request:same_queue_rq <- $x23
	//DEBUG_VALUE: ufs_mq_make_request:bio <- $x19
	//DEBUG_VALUE: ufs_mq_make_request:q <- $x20
	.loc	146 49 13               // kernel/block/blk-wbt.h:49:13
	ldr	x8, [x21, #488]
.Ltmp495:
	.loc	1 1762 11               // kernel/block/mas_blk_iosched_ufs_mq.c:1762:11
	mov	x1, x21
.Ltmp496:
	.loc	146 49 13               // kernel/block/blk-wbt.h:49:13
	orr	x8, x8, x24, lsl #61
	str	x8, [x21, #488]
.Ltmp497:
	.loc	1 1762 38               // kernel/block/mas_blk_iosched_ufs_mq.c:1762:38
	ldr	x0, [sp, #64]
	.loc	1 1762 11 is_stmt 0     // kernel/block/mas_blk_iosched_ufs_mq.c:1762:11
	bl	request_to_qc_t
.Ltmp498:
	.loc	1 1764 32 is_stmt 1     // kernel/block/mas_blk_iosched_ufs_mq.c:1764:32
	ldr	w8, [x19, #16]
.Ltmp499:
	.loc	1 1762 11               // kernel/block/mas_blk_iosched_ufs_mq.c:1762:11
	mov	w20, w0
.Ltmp500:
	//DEBUG_VALUE: ufs_mq_make_request:cookie <- $w20
	//DEBUG_VALUE: ufs_mq_make_flush_request:bio <- $x19
	.loc	1 1764 32               // kernel/block/mas_blk_iosched_ufs_mq.c:1764:32
	and	w9, w8, #0xff
	//DEBUG_VALUE: ufs_mq_make_flush_request:bio <- $x19
.Ltmp501:
	//DEBUG_VALUE: ufs_mq_make_flush_request:dispatch_op <- $w9
	.loc	1 1609 6                // kernel/block/mas_blk_iosched_ufs_mq.c:1609:6
	cmp	w9, #2                  // =2
	b.eq	.LBB13_49
.Ltmp502:
// %bb.18:
	//DEBUG_VALUE: ufs_mq_make_flush_request:dispatch_op <- $w9
	//DEBUG_VALUE: ufs_mq_make_flush_request:bio <- $x19
	//DEBUG_VALUE: ufs_mq_make_request:cookie <- $w20
	//DEBUG_VALUE: ufs_mq_make_request:rq <- $x21
	//DEBUG_VALUE: ufs_mq_make_request:alloc_data <- [DW_OP_plus_uconst 16, DW_OP_deref] $sp
	//DEBUG_VALUE: ufs_mq_make_request:wb_acct <- $w24
	//DEBUG_VALUE: ufs_mq_make_request:same_queue_rq <- $x23
	//DEBUG_VALUE: ufs_mq_make_request:bio <- $x19
	tbnz	w8, #19, .LBB13_49
.Ltmp503:
// %bb.19:
	//DEBUG_VALUE: ufs_mq_make_request:cookie <- $w20
	//DEBUG_VALUE: ufs_mq_make_request:rq <- $x21
	//DEBUG_VALUE: ufs_mq_make_request:alloc_data <- [DW_OP_plus_uconst 16, DW_OP_deref] $sp
	//DEBUG_VALUE: ufs_mq_make_request:wb_acct <- $w24
	//DEBUG_VALUE: ufs_mq_make_request:same_queue_rq <- $x23
	//DEBUG_VALUE: ufs_mq_make_request:bio <- $x19
	.loc	1 1767 6                // kernel/block/mas_blk_iosched_ufs_mq.c:1767:6
	ldr	w9, [x21, #84]
.Ltmp504:
	.loc	1 1767 6 is_stmt 0      // kernel/block/mas_blk_iosched_ufs_mq.c:1767:6
	tbz	w9, #11, .LBB13_52
.Ltmp505:
// %bb.20:
	//DEBUG_VALUE: ufs_mq_make_request:cookie <- $w20
	//DEBUG_VALUE: ufs_mq_make_request:rq <- $x21
	//DEBUG_VALUE: ufs_mq_make_request:alloc_data <- [DW_OP_plus_uconst 16, DW_OP_deref] $sp
	//DEBUG_VALUE: ufs_mq_make_request:wb_acct <- $w24
	//DEBUG_VALUE: ufs_mq_make_request:same_queue_rq <- $x23
	//DEBUG_VALUE: ufs_mq_make_request:bio <- $x19
	//DEBUG_VALUE: ufs_mq_make_request:alloc_data <- [DW_OP_plus_uconst 16, DW_OP_deref] $sp
	//DEBUG_VALUE: ufs_mq_make_sync_request:bio <- $x19
	//DEBUG_VALUE: ufs_mq_make_sync_request:alloc_data <- [DW_OP_plus_uconst 16] $sp
	.loc	1 1649 35 is_stmt 1     // kernel/block/mas_blk_iosched_ufs_mq.c:1649:35
	ldr	x8, [x21, #64]
.Ltmp506:
	.loc	1 1427 2                // kernel/block/mas_blk_iosched_ufs_mq.c:1427:2
	mov	x0, x21
	mov	x1, x19
.Ltmp507:
	.loc	1 1649 48               // kernel/block/mas_blk_iosched_ufs_mq.c:1649:48
	ldr	x22, [x8, #1800]
.Ltmp508:
	//DEBUG_VALUE: ufs_mq_bio_to_request:bio <- $x19
	//DEBUG_VALUE: ufs_mq_make_sync_request:sched_ds <- $x22
	//DEBUG_VALUE: ufs_mq_sync_queue_rq:sched_ds <- $x22
	.loc	1 1427 2                // kernel/block/mas_blk_iosched_ufs_mq.c:1427:2
	bl	blk_init_request_from_bio
	.loc	1 1428 2                // kernel/block/mas_blk_iosched_ufs_mq.c:1428:2
	orr	w1, wzr, #0x1
	mov	x0, x21
	bl	blk_account_io_start
.Ltmp509:
	//DEBUG_VALUE: ufs_mq_req_add_pluglist:rq <- 0
	.loc	1 1590 6                // kernel/block/mas_blk_iosched_ufs_mq.c:1590:6
	cbnz	w26, .LBB13_63
.Ltmp510:
// %bb.21:
	//DEBUG_VALUE: ufs_mq_make_sync_request:sched_ds <- $x22
	//DEBUG_VALUE: ufs_mq_make_sync_request:alloc_data <- [DW_OP_plus_uconst 16] $sp
	//DEBUG_VALUE: ufs_mq_make_sync_request:bio <- $x19
	//DEBUG_VALUE: ufs_mq_make_request:cookie <- $w20
	//DEBUG_VALUE: ufs_mq_make_request:rq <- $x21
	//DEBUG_VALUE: ufs_mq_make_request:alloc_data <- [DW_OP_plus_uconst 16, DW_OP_deref] $sp
	//DEBUG_VALUE: ufs_mq_make_request:wb_acct <- $w24
	//DEBUG_VALUE: ufs_mq_make_request:same_queue_rq <- $x23
	//DEBUG_VALUE: ufs_mq_make_request:bio <- $x19
	.loc	1 1591 7                // kernel/block/mas_blk_iosched_ufs_mq.c:1591:7
	cbz	x23, .LBB13_24
.Ltmp511:
// %bb.22:
	//DEBUG_VALUE: ufs_mq_make_sync_request:sched_ds <- $x22
	//DEBUG_VALUE: ufs_mq_make_sync_request:alloc_data <- [DW_OP_plus_uconst 16] $sp
	//DEBUG_VALUE: ufs_mq_make_sync_request:bio <- $x19
	//DEBUG_VALUE: ufs_mq_make_request:cookie <- $w20
	//DEBUG_VALUE: ufs_mq_make_request:rq <- $x21
	//DEBUG_VALUE: ufs_mq_make_request:alloc_data <- [DW_OP_plus_uconst 16, DW_OP_deref] $sp
	//DEBUG_VALUE: ufs_mq_make_request:wb_acct <- $w24
	//DEBUG_VALUE: ufs_mq_make_request:same_queue_rq <- $x23
	//DEBUG_VALUE: ufs_mq_make_request:bio <- $x19
	//DEBUG_VALUE: __read_once_size:res <- undef
	//DEBUG_VALUE: __read_once_size:size <- 8
	//DEBUG_VALUE: list_empty:head <- undef
	//DEBUG_VALUE: __read_once_size:p <- undef
	.loc	154 183 2               // kernel/include/linux/compiler.h:183:2
	mov	x8, x25
	ldr	x9, [x8, #48]!
.Ltmp512:
	.loc	1 1591 7                // kernel/block/mas_blk_iosched_ufs_mq.c:1591:7
	cmp	x8, x9
	b.eq	.LBB13_64
.Ltmp513:
// %bb.23:
	//DEBUG_VALUE: ufs_mq_make_sync_request:sched_ds <- $x22
	//DEBUG_VALUE: ufs_mq_make_sync_request:alloc_data <- [DW_OP_plus_uconst 16] $sp
	//DEBUG_VALUE: ufs_mq_make_sync_request:bio <- $x19
	//DEBUG_VALUE: ufs_mq_make_request:cookie <- $w20
	//DEBUG_VALUE: ufs_mq_make_request:rq <- $x21
	//DEBUG_VALUE: ufs_mq_make_request:alloc_data <- [DW_OP_plus_uconst 16, DW_OP_deref] $sp
	//DEBUG_VALUE: ufs_mq_make_request:wb_acct <- $w24
	//DEBUG_VALUE: ufs_mq_make_request:same_queue_rq <- $x23
	//DEBUG_VALUE: ufs_mq_make_request:bio <- $x19
	//DEBUG_VALUE: list_del_init:entry <- $x23
	//DEBUG_VALUE: __list_del_entry:entry <- $x23
	.loc	157 120 33              // kernel/include/linux/list.h:120:33
	ldp	x8, x9, [x23]
.Ltmp514:
	//DEBUG_VALUE: __list_del:prev <- $x9
	//DEBUG_VALUE: __list_del:next <- $x8
	.loc	157 105 13              // kernel/include/linux/list.h:105:13
	str	x9, [x8, #8]
.Ltmp515:
	//DEBUG_VALUE: __write_once_size:p <- $x9
	//DEBUG_VALUE: __write_once_size:size <- 8
	//DEBUG_VALUE: __write_once_size:res <- undef
	.loc	154 210 31              // kernel/include/linux/compiler.h:210:31
	str	x8, [x9]
.Ltmp516:
	//DEBUG_VALUE: __write_once_size:p <- $x23
	//DEBUG_VALUE: __write_once_size:size <- 8
	//DEBUG_VALUE: __write_once_size:res <- undef
	//DEBUG_VALUE: INIT_LIST_HEAD:list <- $x23
	.loc	154 210 31 is_stmt 0    // kernel/include/linux/compiler.h:210:31
	str	x23, [x23]
.Ltmp517:
	.loc	157 29 13 is_stmt 1     // kernel/include/linux/list.h:29:13
	str	x23, [x23, #8]
.Ltmp518:
.LBB13_24:
	//DEBUG_VALUE: ufs_mq_make_sync_request:sched_ds <- $x22
	//DEBUG_VALUE: ufs_mq_make_sync_request:alloc_data <- [DW_OP_plus_uconst 16] $sp
	//DEBUG_VALUE: ufs_mq_make_sync_request:bio <- $x19
	//DEBUG_VALUE: ufs_mq_make_request:cookie <- $w20
	//DEBUG_VALUE: ufs_mq_make_request:rq <- $x21
	//DEBUG_VALUE: ufs_mq_make_request:alloc_data <- [DW_OP_plus_uconst 16, DW_OP_deref] $sp
	//DEBUG_VALUE: ufs_mq_make_request:wb_acct <- $w24
	//DEBUG_VALUE: ufs_mq_make_request:bio <- $x19
	//DEBUG_VALUE: ufs_mq_req_add_pluglist:rq <- $x23
	//DEBUG_VALUE: list_add_tail:new <- $x21
	.loc	157 93 24               // kernel/include/linux/list.h:93:24
	ldr	x8, [x25, #56]
.Ltmp519:
	.loc	1 1596 44               // kernel/block/mas_blk_iosched_ufs_mq.c:1596:44
	add	x9, x25, #48            // =48
.Ltmp520:
	//DEBUG_VALUE: list_add_tail:head <- $x9
	//DEBUG_VALUE: __list_add:next <- $x9
	//DEBUG_VALUE: __list_add:prev <- $x8
	//DEBUG_VALUE: __list_add:new <- $x21
	.loc	1 1597 3                // kernel/block/mas_blk_iosched_ufs_mq.c:1597:3
	orr	w1, wzr, #0x6
	mov	x0, x21
.Ltmp521:
	.loc	157 63 13               // kernel/include/linux/list.h:63:13
	str	x21, [x25, #56]
	//DEBUG_VALUE: list_add_tail:new <- $x21
	.loc	157 64 12               // kernel/include/linux/list.h:64:12
	stp	x9, x8, [x21]
.Ltmp522:
	//DEBUG_VALUE: __write_once_size:p <- $x8
	//DEBUG_VALUE: __write_once_size:size <- 8
	//DEBUG_VALUE: __write_once_size:res <- undef
	.loc	154 210 31              // kernel/include/linux/compiler.h:210:31
	str	x21, [x8]
.Ltmp523:
	.loc	1 1597 3                // kernel/block/mas_blk_iosched_ufs_mq.c:1597:3
	bl	mas_blk_latency_req_check
.Ltmp524:
	.loc	1 1660 8                // kernel/block/mas_blk_iosched_ufs_mq.c:1660:8
	str	x23, [sp, #72]
.Ltmp525:
	//DEBUG_VALUE: ufs_mq_sync_queue_rq:alloc_data <- [DW_OP_plus_uconst 16] $sp
	//DEBUG_VALUE: ufs_mq_sync_queue_rq:bd <- [DW_OP_plus_uconst 72] $sp
	//DEBUG_VALUE: ufs_mq_make_sync_request:bd <- [DW_OP_plus_uconst 72, DW_OP_deref] $sp
	.loc	1 1639 9                // kernel/block/mas_blk_iosched_ufs_mq.c:1639:9
	cbz	x23, .LBB13_26
.Ltmp526:
.LBB13_25:
	//DEBUG_VALUE: ufs_mq_make_sync_request:bd <- [DW_OP_plus_uconst 72, DW_OP_deref] $sp
	//DEBUG_VALUE: ufs_mq_sync_queue_rq:bd <- [DW_OP_plus_uconst 72] $sp
	//DEBUG_VALUE: ufs_mq_sync_queue_rq:alloc_data <- [DW_OP_plus_uconst 16] $sp
	//DEBUG_VALUE: ufs_mq_make_sync_request:sched_ds <- $x22
	//DEBUG_VALUE: ufs_mq_make_sync_request:alloc_data <- [DW_OP_plus_uconst 16] $sp
	//DEBUG_VALUE: ufs_mq_make_sync_request:bio <- $x19
	//DEBUG_VALUE: ufs_mq_make_request:cookie <- $w20
	//DEBUG_VALUE: ufs_mq_make_request:rq <- $x21
	//DEBUG_VALUE: ufs_mq_make_request:alloc_data <- [DW_OP_plus_uconst 16, DW_OP_deref] $sp
	//DEBUG_VALUE: ufs_mq_make_request:wb_acct <- $w24
	//DEBUG_VALUE: ufs_mq_make_request:bio <- $x19
	.loc	1 1639 56 is_stmt 0     // kernel/block/mas_blk_iosched_ufs_mq.c:1639:56
	ldr	x1, [sp, #64]
	.loc	1 1640 13 is_stmt 1     // kernel/block/mas_blk_iosched_ufs_mq.c:1640:13
	ldr	x2, [x22, #280]
	.loc	1 1640 35 is_stmt 0     // kernel/block/mas_blk_iosched_ufs_mq.c:1640:35
	ldr	x4, [x21, #64]
	.loc	1 1639 18 is_stmt 1     // kernel/block/mas_blk_iosched_ufs_mq.c:1639:18
	add	x3, sp, #72             // =72
	mov	x0, x23
	bl	__ufs_mq_queue_rq
	mov	w19, w0
.Ltmp527:
	.loc	1 0 18 is_stmt 0        // kernel/block/mas_blk_iosched_ufs_mq.c:0:18
	b	.LBB13_27
.Ltmp528:
.LBB13_26:
	//DEBUG_VALUE: ufs_mq_make_sync_request:bd <- [DW_OP_plus_uconst 72, DW_OP_deref] $sp
	//DEBUG_VALUE: ufs_mq_sync_queue_rq:bd <- [DW_OP_plus_uconst 72] $sp
	//DEBUG_VALUE: ufs_mq_sync_queue_rq:alloc_data <- [DW_OP_plus_uconst 16] $sp
	//DEBUG_VALUE: ufs_mq_make_sync_request:sched_ds <- $x22
	//DEBUG_VALUE: ufs_mq_make_sync_request:alloc_data <- [DW_OP_plus_uconst 16] $sp
	//DEBUG_VALUE: ufs_mq_make_sync_request:bio <- $x19
	//DEBUG_VALUE: ufs_mq_make_request:cookie <- $w20
	//DEBUG_VALUE: ufs_mq_make_request:rq <- $x21
	//DEBUG_VALUE: ufs_mq_make_request:alloc_data <- [DW_OP_plus_uconst 16, DW_OP_deref] $sp
	//DEBUG_VALUE: ufs_mq_make_request:wb_acct <- $w24
	//DEBUG_VALUE: ufs_mq_make_request:bio <- $x19
	.loc	1 1639 9                // kernel/block/mas_blk_iosched_ufs_mq.c:1639:9
	mov	w19, wzr
.Ltmp529:
.LBB13_27:
	//DEBUG_VALUE: ufs_mq_make_sync_request:bd <- [DW_OP_plus_uconst 72, DW_OP_deref] $sp
	//DEBUG_VALUE: ufs_mq_make_sync_request:sched_ds <- $x22
	//DEBUG_VALUE: ufs_mq_make_sync_request:alloc_data <- [DW_OP_plus_uconst 16] $sp
	//DEBUG_VALUE: ufs_mq_make_request:cookie <- $w20
	//DEBUG_VALUE: ufs_mq_make_request:rq <- $x21
	//DEBUG_VALUE: ufs_mq_make_request:alloc_data <- [DW_OP_plus_uconst 16, DW_OP_deref] $sp
	//DEBUG_VALUE: ufs_mq_make_request:wb_acct <- $w24
	//DEBUG_VALUE: ufs_mq_make_sync_request:ret <- $w19
	.loc	1 1662 29 is_stmt 1     // kernel/block/mas_blk_iosched_ufs_mq.c:1662:29
	ldr	x8, [sp, #56]
.Ltmp530:
	//DEBUG_VALUE: blk_mq_put_ctx:ctx <- $x8
	.loc	9 119 11                // kernel/block/blk-mq.h:119:11
	ldr	x0, [x8, #144]
	.loc	9 119 18 is_stmt 0      // kernel/block/blk-mq.h:119:18
	ldr	x8, [x0, #1808]
.Ltmp531:
	.loc	9 119 32                // kernel/block/blk-mq.h:119:32
	cbz	x8, .LBB13_30
.Ltmp532:
// %bb.28:
	//DEBUG_VALUE: ufs_mq_make_sync_request:ret <- $w19
	//DEBUG_VALUE: ufs_mq_make_sync_request:bd <- [DW_OP_plus_uconst 72, DW_OP_deref] $sp
	//DEBUG_VALUE: ufs_mq_make_sync_request:sched_ds <- $x22
	//DEBUG_VALUE: ufs_mq_make_sync_request:alloc_data <- [DW_OP_plus_uconst 16] $sp
	//DEBUG_VALUE: ufs_mq_make_request:cookie <- $w20
	//DEBUG_VALUE: ufs_mq_make_request:rq <- $x21
	//DEBUG_VALUE: ufs_mq_make_request:alloc_data <- [DW_OP_plus_uconst 16, DW_OP_deref] $sp
	//DEBUG_VALUE: ufs_mq_make_request:wb_acct <- $w24
	.loc	9 119 62                // kernel/block/blk-mq.h:119:62
	ldr	x8, [x8, #88]
.Ltmp533:
	.loc	9 119 6                 // kernel/block/blk-mq.h:119:6
	cbz	x8, .LBB13_30
.Ltmp534:
// %bb.29:
	//DEBUG_VALUE: ufs_mq_make_sync_request:ret <- $w19
	//DEBUG_VALUE: ufs_mq_make_sync_request:bd <- [DW_OP_plus_uconst 72, DW_OP_deref] $sp
	//DEBUG_VALUE: ufs_mq_make_sync_request:sched_ds <- $x22
	//DEBUG_VALUE: ufs_mq_make_sync_request:alloc_data <- [DW_OP_plus_uconst 16] $sp
	//DEBUG_VALUE: ufs_mq_make_request:cookie <- $w20
	//DEBUG_VALUE: ufs_mq_make_request:rq <- $x21
	//DEBUG_VALUE: ufs_mq_make_request:alloc_data <- [DW_OP_plus_uconst 16, DW_OP_deref] $sp
	//DEBUG_VALUE: ufs_mq_make_request:wb_acct <- $w24
	.loc	9 120 3 is_stmt 1       // kernel/block/blk-mq.h:120:3
	blr	x8
.Ltmp535:
	.loc	1 1663 6                // kernel/block/mas_blk_iosched_ufs_mq.c:1663:6
	cbz	w19, .LBB13_33
	b	.LBB13_67
.Ltmp536:
.LBB13_30:
	//DEBUG_VALUE: ufs_mq_make_sync_request:ret <- $w19
	//DEBUG_VALUE: ufs_mq_make_sync_request:bd <- [DW_OP_plus_uconst 72, DW_OP_deref] $sp
	//DEBUG_VALUE: ufs_mq_make_sync_request:sched_ds <- $x22
	//DEBUG_VALUE: ufs_mq_make_sync_request:alloc_data <- [DW_OP_plus_uconst 16] $sp
	//DEBUG_VALUE: ufs_mq_make_request:cookie <- $w20
	//DEBUG_VALUE: ufs_mq_make_request:rq <- $x21
	//DEBUG_VALUE: ufs_mq_make_request:alloc_data <- [DW_OP_plus_uconst 16, DW_OP_deref] $sp
	//DEBUG_VALUE: ufs_mq_make_request:wb_acct <- $w24
	.loc	9 123 3                 // kernel/block/blk-mq.h:123:3
	//APP
	//NO_APP
.Ltmp537:
	.loc	163 19 2                // kernel/arch/arm64/include/asm/current.h:19:2
	//APP
	mrs x8, sp_el0
	//NO_APP
.Ltmp538:
	//DEBUG_VALUE: test_ti_thread_flag:ti <- $x8
	//DEBUG_VALUE: get_current:sp_el0 <- $x8
	//DEBUG_VALUE: get_current:sp_el0 <- $x8
	.loc	158 69 10               // kernel/include/asm-generic/preempt.h:69:10
	ldr	w9, [x8, #24]
	subs	w9, w9, #1              // =1
	str	w9, [x8, #24]
	.loc	158 69 33 is_stmt 0     // kernel/include/asm-generic/preempt.h:69:33
	b.ne	.LBB13_32
.Ltmp539:
// %bb.31:
	//DEBUG_VALUE: test_ti_thread_flag:ti <- $x8
	//DEBUG_VALUE: ufs_mq_make_sync_request:ret <- $w19
	//DEBUG_VALUE: ufs_mq_make_sync_request:bd <- [DW_OP_plus_uconst 72, DW_OP_deref] $sp
	//DEBUG_VALUE: ufs_mq_make_sync_request:sched_ds <- $x22
	//DEBUG_VALUE: ufs_mq_make_sync_request:alloc_data <- [DW_OP_plus_uconst 16] $sp
	//DEBUG_VALUE: ufs_mq_make_request:cookie <- $w20
	//DEBUG_VALUE: ufs_mq_make_request:rq <- $x21
	//DEBUG_VALUE: ufs_mq_make_request:alloc_data <- [DW_OP_plus_uconst 16, DW_OP_deref] $sp
	//DEBUG_VALUE: ufs_mq_make_request:wb_acct <- $w24
	//DEBUG_VALUE: test_ti_thread_flag:flag <- 1
	//DEBUG_VALUE: test_bit:nr <- 1
	//DEBUG_VALUE: test_bit:addr <- $x8
	.loc	160 106 16 is_stmt 1    // kernel/include/asm-generic/bitops/non-atomic.h:106:16
	ldr	x8, [x8]
.Ltmp540:
	.loc	9 123 3                 // kernel/block/blk-mq.h:123:3
	tbnz	w8, #1, .LBB13_66
.Ltmp541:
.LBB13_32:
	//DEBUG_VALUE: ufs_mq_make_sync_request:ret <- $w19
	//DEBUG_VALUE: ufs_mq_make_sync_request:bd <- [DW_OP_plus_uconst 72, DW_OP_deref] $sp
	//DEBUG_VALUE: ufs_mq_make_sync_request:sched_ds <- $x22
	//DEBUG_VALUE: ufs_mq_make_sync_request:alloc_data <- [DW_OP_plus_uconst 16] $sp
	//DEBUG_VALUE: ufs_mq_make_request:cookie <- $w20
	//DEBUG_VALUE: ufs_mq_make_request:rq <- $x21
	//DEBUG_VALUE: ufs_mq_make_request:alloc_data <- [DW_OP_plus_uconst 16, DW_OP_deref] $sp
	//DEBUG_VALUE: ufs_mq_make_request:wb_acct <- $w24
	.loc	1 1663 6                // kernel/block/mas_blk_iosched_ufs_mq.c:1663:6
	cbnz	w19, .LBB13_67
.Ltmp542:
.LBB13_33:
	.loc	1 0 6 is_stmt 0         // kernel/block/mas_blk_iosched_ufs_mq.c:0:6
	adrp	x9, __stack_chk_guard
	ldur	x8, [x29, #-72]
	ldr	x9, [x9, :lo12:__stack_chk_guard]
	cmp	x9, x8
	b.ne	.LBB13_77
// %bb.34:
	.loc	1 1790 1 is_stmt 1      // kernel/block/mas_blk_iosched_ufs_mq.c:1790:1
	mov	w0, w20
	ldp	x29, x30, [sp, #160]    // 16-byte Folded Reload
	ldp	x20, x19, [sp, #144]    // 16-byte Folded Reload
	ldp	x22, x21, [sp, #128]    // 16-byte Folded Reload
	ldp	x24, x23, [sp, #112]    // 16-byte Folded Reload
	ldp	x26, x25, [sp, #96]     // 16-byte Folded Reload
	add	sp, sp, #176            // =176
	ret
.LBB13_35:
.Ltmp543:
	//DEBUG_VALUE: ufs_mq_get_current_plug:bio <- $x19
	//DEBUG_VALUE: ufs_mq_get_plug:bio <- $x19
	//DEBUG_VALUE: ufs_mq_make_request:bio <- $x19
	//DEBUG_VALUE: ufs_mq_make_request:q <- $x20
	.loc	1 1574 6                // kernel/block/mas_blk_iosched_ufs_mq.c:1574:6
	ldr	x10, [x9, #64]
	cbz	x10, .LBB13_37
.Ltmp544:
// %bb.36:
	//DEBUG_VALUE: ufs_mq_get_current_plug:bio <- $x19
	//DEBUG_VALUE: ufs_mq_get_plug:bio <- $x19
	//DEBUG_VALUE: ufs_mq_make_request:bio <- $x19
	//DEBUG_VALUE: ufs_mq_make_request:q <- $x20
	.loc	1 0 6 is_stmt 0         // kernel/block/mas_blk_iosched_ufs_mq.c:0:6
	adrp	x11, __cfi_ufs_mq_flush_plug_list
	add	x11, x11, :lo12:__cfi_ufs_mq_flush_plug_list
	.loc	1 1574 6                // kernel/block/mas_blk_iosched_ufs_mq.c:1574:6
	cmp	x10, x11
	b.ne	.LBB13_12
.Ltmp545:
.LBB13_37:
	//DEBUG_VALUE: ufs_mq_get_current_plug:bio <- $x19
	//DEBUG_VALUE: ufs_mq_get_plug:bio <- $x19
	//DEBUG_VALUE: ufs_mq_make_request:bio <- $x19
	//DEBUG_VALUE: ufs_mq_make_request:q <- $x20
	.loc	1 1578 36 is_stmt 1     // kernel/block/mas_blk_iosched_ufs_mq.c:1578:36
	adrp	x10, __cfi_ufs_mq_flush_plug_list
	add	x10, x10, :lo12:__cfi_ufs_mq_flush_plug_list
	str	x10, [x9, #64]
	.loc	1 1579 18               // kernel/block/mas_blk_iosched_ufs_mq.c:1579:18
	ldr	x25, [x8, #2544]
.Ltmp546:
	//DEBUG_VALUE: ufs_mq_make_request:plug <- $x25
	//DEBUG_VALUE: ufs_mq_attempt_plug_merge:plug <- $x25
	//DEBUG_VALUE: ufs_mq_make_sync_request:plug <- $x25
	//DEBUG_VALUE: ufs_mq_req_add_pluglist:plg <- $x25
	.loc	1 1721 11               // kernel/block/mas_blk_iosched_ufs_mq.c:1721:11
	cbz	x25, .LBB13_13
.Ltmp547:
// %bb.38:
	//DEBUG_VALUE: ufs_mq_attempt_plug_merge:plug <- $x25
	//DEBUG_VALUE: ufs_mq_make_request:plug <- $x25
	//DEBUG_VALUE: ufs_mq_make_request:bio <- $x19
	//DEBUG_VALUE: ufs_mq_make_request:q <- $x20
	//DEBUG_VALUE: ufs_mq_attempt_plug_merge:q <- $x20
	//DEBUG_VALUE: ufs_mq_attempt_plug_merge:bio <- $x19
	//DEBUG_VALUE: ufs_mq_attempt_plug_merge:rq <- 0
	//DEBUG_VALUE: ufs_mq_attempt_plug_merge:ret <- 0
	.loc	1 0 0 is_stmt 0         // kernel/block/mas_blk_iosched_ufs_mq.c:0:0
	ldr	x21, [x25, #56]
.Ltmp548:
	//DEBUG_VALUE: ufs_mq_attempt_plug_merge:ret <- undef
	//DEBUG_VALUE: ufs_mq_attempt_plug_merge:rq <- $x21
	.loc	1 1496 45 is_stmt 1     // kernel/block/mas_blk_iosched_ufs_mq.c:1496:45
	add	x22, x25, #48           // =48
.Ltmp549:
	//DEBUG_VALUE: __mptr <- undef
	//DEBUG_VALUE: ufs_mq_attempt_plug_merge:plug_list <- $x22
	.loc	1 1498 2                // kernel/block/mas_blk_iosched_ufs_mq.c:1498:2
	cmp	x21, x22
	b.eq	.LBB13_48
.Ltmp550:
// %bb.39:
	//DEBUG_VALUE: ufs_mq_attempt_plug_merge:plug_list <- $x22
	//DEBUG_VALUE: ufs_mq_attempt_plug_merge:rq <- $x21
	//DEBUG_VALUE: ufs_mq_attempt_plug_merge:bio <- $x19
	//DEBUG_VALUE: ufs_mq_attempt_plug_merge:q <- $x20
	//DEBUG_VALUE: ufs_mq_attempt_plug_merge:plug <- $x25
	//DEBUG_VALUE: ufs_mq_make_request:plug <- $x25
	//DEBUG_VALUE: ufs_mq_make_request:bio <- $x19
	//DEBUG_VALUE: ufs_mq_make_request:q <- $x20
	.loc	1 0 0 is_stmt 0         // kernel/block/mas_blk_iosched_ufs_mq.c:0:0
	mov	x23, xzr
.Ltmp551:
.LBB13_40:                              // =>This Inner Loop Header: Depth=1
	//DEBUG_VALUE: ufs_mq_attempt_plug_merge:plug_list <- $x22
	//DEBUG_VALUE: ufs_mq_attempt_plug_merge:rq <- $x21
	//DEBUG_VALUE: ufs_mq_attempt_plug_merge:bio <- $x19
	//DEBUG_VALUE: ufs_mq_attempt_plug_merge:q <- $x20
	//DEBUG_VALUE: ufs_mq_attempt_plug_merge:plug <- $x25
	//DEBUG_VALUE: ufs_mq_make_request:plug <- $x25
	//DEBUG_VALUE: ufs_mq_make_request:bio <- $x19
	//DEBUG_VALUE: ufs_mq_make_request:q <- $x20
	.loc	1 1501 7 is_stmt 1      // kernel/block/mas_blk_iosched_ufs_mq.c:1501:7
	ldr	x8, [x21, #64]
.Ltmp552:
	.loc	1 1501 7 is_stmt 0      // kernel/block/mas_blk_iosched_ufs_mq.c:1501:7
	cmp	x8, x20
	b.ne	.LBB13_46
.Ltmp553:
// %bb.41:                              //   in Loop: Header=BB13_40 Depth=1
	//DEBUG_VALUE: ufs_mq_attempt_plug_merge:plug_list <- $x22
	//DEBUG_VALUE: ufs_mq_attempt_plug_merge:rq <- $x21
	//DEBUG_VALUE: ufs_mq_attempt_plug_merge:bio <- $x19
	//DEBUG_VALUE: ufs_mq_attempt_plug_merge:q <- $x20
	//DEBUG_VALUE: ufs_mq_attempt_plug_merge:plug <- $x25
	//DEBUG_VALUE: ufs_mq_make_request:plug <- $x25
	//DEBUG_VALUE: ufs_mq_make_request:bio <- $x19
	//DEBUG_VALUE: ufs_mq_make_request:q <- $x20
	.loc	1 1511 22 is_stmt 1     // kernel/block/mas_blk_iosched_ufs_mq.c:1511:22
	mov	x0, x21
	mov	x1, x19
	bl	blk_rq_merge_ok
	mov	x23, x21
.Ltmp554:
	.loc	1 1511 7 is_stmt 0      // kernel/block/mas_blk_iosched_ufs_mq.c:1511:7
	tbz	w0, #0, .LBB13_46
.Ltmp555:
// %bb.42:                              //   in Loop: Header=BB13_40 Depth=1
	//DEBUG_VALUE: ufs_mq_attempt_plug_merge:plug_list <- $x22
	//DEBUG_VALUE: ufs_mq_attempt_plug_merge:rq <- $x21
	//DEBUG_VALUE: ufs_mq_attempt_plug_merge:bio <- $x19
	//DEBUG_VALUE: ufs_mq_attempt_plug_merge:q <- $x20
	//DEBUG_VALUE: ufs_mq_attempt_plug_merge:plug <- $x25
	//DEBUG_VALUE: ufs_mq_make_request:plug <- $x25
	//DEBUG_VALUE: ufs_mq_make_request:bio <- $x19
	//DEBUG_VALUE: ufs_mq_make_request:q <- $x20
	.loc	1 1514 12 is_stmt 1     // kernel/block/mas_blk_iosched_ufs_mq.c:1514:12
	mov	x0, x21
	mov	x1, x19
	bl	blk_try_merge
.Ltmp556:
	//DEBUG_VALUE: el_ret <- $w0
	.loc	1 1515 7                // kernel/block/mas_blk_iosched_ufs_mq.c:1515:7
	cmp	w0, #1                  // =1
	b.eq	.LBB13_45
.Ltmp557:
// %bb.43:                              //   in Loop: Header=BB13_40 Depth=1
	//DEBUG_VALUE: el_ret <- $w0
	//DEBUG_VALUE: ufs_mq_attempt_plug_merge:plug_list <- $x22
	//DEBUG_VALUE: ufs_mq_attempt_plug_merge:rq <- $x21
	//DEBUG_VALUE: ufs_mq_attempt_plug_merge:bio <- $x19
	//DEBUG_VALUE: ufs_mq_attempt_plug_merge:q <- $x20
	//DEBUG_VALUE: ufs_mq_attempt_plug_merge:plug <- $x25
	//DEBUG_VALUE: ufs_mq_make_request:plug <- $x25
	//DEBUG_VALUE: ufs_mq_make_request:bio <- $x19
	//DEBUG_VALUE: ufs_mq_make_request:q <- $x20
	cmp	w0, #2                  // =2
	mov	x23, x21
	b.ne	.LBB13_46
.Ltmp558:
// %bb.44:                              //   in Loop: Header=BB13_40 Depth=1
	//DEBUG_VALUE: el_ret <- $w0
	//DEBUG_VALUE: ufs_mq_attempt_plug_merge:plug_list <- $x22
	//DEBUG_VALUE: ufs_mq_attempt_plug_merge:rq <- $x21
	//DEBUG_VALUE: ufs_mq_attempt_plug_merge:bio <- $x19
	//DEBUG_VALUE: ufs_mq_attempt_plug_merge:q <- $x20
	//DEBUG_VALUE: ufs_mq_attempt_plug_merge:plug <- $x25
	//DEBUG_VALUE: ufs_mq_make_request:plug <- $x25
	//DEBUG_VALUE: ufs_mq_make_request:bio <- $x19
	//DEBUG_VALUE: ufs_mq_make_request:q <- $x20
	.loc	1 1516 10               // kernel/block/mas_blk_iosched_ufs_mq.c:1516:10
	mov	x0, x20
.Ltmp559:
	mov	x1, x21
	mov	x2, x19
	bl	bio_attempt_back_merge
	mov	x23, x21
	.loc	1 1517 8                // kernel/block/mas_blk_iosched_ufs_mq.c:1517:8
	tbz	w0, #0, .LBB13_46
	b	.LBB13_51
.Ltmp560:
.LBB13_45:                              //   in Loop: Header=BB13_40 Depth=1
	//DEBUG_VALUE: el_ret <- $w0
	//DEBUG_VALUE: ufs_mq_attempt_plug_merge:plug_list <- $x22
	//DEBUG_VALUE: ufs_mq_attempt_plug_merge:rq <- $x21
	//DEBUG_VALUE: ufs_mq_attempt_plug_merge:bio <- $x19
	//DEBUG_VALUE: ufs_mq_attempt_plug_merge:q <- $x20
	//DEBUG_VALUE: ufs_mq_attempt_plug_merge:plug <- $x25
	//DEBUG_VALUE: ufs_mq_make_request:plug <- $x25
	//DEBUG_VALUE: ufs_mq_make_request:bio <- $x19
	//DEBUG_VALUE: ufs_mq_make_request:q <- $x20
	.loc	1 1520 10               // kernel/block/mas_blk_iosched_ufs_mq.c:1520:10
	mov	x0, x20
.Ltmp561:
	mov	x1, x21
	mov	x2, x19
	bl	bio_attempt_front_merge
	mov	x23, x21
	.loc	1 1521 8                // kernel/block/mas_blk_iosched_ufs_mq.c:1521:8
	tbnz	w0, #0, .LBB13_51
.Ltmp562:
.LBB13_46:                              //   in Loop: Header=BB13_40 Depth=1
	//DEBUG_VALUE: ufs_mq_attempt_plug_merge:plug_list <- $x22
	//DEBUG_VALUE: ufs_mq_attempt_plug_merge:rq <- $x21
	//DEBUG_VALUE: ufs_mq_attempt_plug_merge:bio <- $x19
	//DEBUG_VALUE: ufs_mq_attempt_plug_merge:q <- $x20
	//DEBUG_VALUE: ufs_mq_attempt_plug_merge:plug <- $x25
	//DEBUG_VALUE: ufs_mq_make_request:plug <- $x25
	//DEBUG_VALUE: ufs_mq_make_request:bio <- $x19
	//DEBUG_VALUE: ufs_mq_make_request:q <- $x20
	//DEBUG_VALUE: ufs_mq_attempt_plug_merge:ret <- undef
	//DEBUG_VALUE: __mptr <- undef
	.loc	1 0 0 is_stmt 0         // kernel/block/mas_blk_iosched_ufs_mq.c:0:0
	ldr	x21, [x21, #8]
.Ltmp563:
	//DEBUG_VALUE: ufs_mq_attempt_plug_merge:ret <- undef
	//DEBUG_VALUE: ufs_mq_attempt_plug_merge:rq <- $x21
	.loc	1 1498 2 is_stmt 1      // kernel/block/mas_blk_iosched_ufs_mq.c:1498:2
	cmp	x21, x22
	b.ne	.LBB13_40
.Ltmp564:
// %bb.47:
	//DEBUG_VALUE: ufs_mq_attempt_plug_merge:plug_list <- $x22
	//DEBUG_VALUE: ufs_mq_attempt_plug_merge:rq <- $x21
	//DEBUG_VALUE: ufs_mq_attempt_plug_merge:bio <- $x19
	//DEBUG_VALUE: ufs_mq_attempt_plug_merge:q <- $x20
	//DEBUG_VALUE: ufs_mq_attempt_plug_merge:plug <- $x25
	//DEBUG_VALUE: ufs_mq_make_request:plug <- $x25
	//DEBUG_VALUE: ufs_mq_make_request:bio <- $x19
	//DEBUG_VALUE: ufs_mq_make_request:q <- $x20
	.loc	1 0 2 is_stmt 0         // kernel/block/mas_blk_iosched_ufs_mq.c:0:2
	mov	w26, wzr
	mov	w22, wzr
.Ltmp565:
	b	.LBB13_14
.Ltmp566:
.LBB13_48:
	//DEBUG_VALUE: ufs_mq_make_request:plug <- $x25
	//DEBUG_VALUE: ufs_mq_make_request:bio <- $x19
	//DEBUG_VALUE: ufs_mq_make_request:q <- $x20
	mov	w26, wzr
	mov	w22, wzr
	.loc	1 1705 18 is_stmt 1     // kernel/block/mas_blk_iosched_ufs_mq.c:1705:18
	mov	x23, xzr
	b	.LBB13_14
.Ltmp567:
.LBB13_49:
	//DEBUG_VALUE: ufs_mq_make_flush_request:dispatch_op <- $w9
	//DEBUG_VALUE: ufs_mq_make_flush_request:bio <- $x19
	//DEBUG_VALUE: ufs_mq_make_request:cookie <- $w20
	//DEBUG_VALUE: ufs_mq_make_request:rq <- $x21
	//DEBUG_VALUE: ufs_mq_make_request:alloc_data <- [DW_OP_plus_uconst 16, DW_OP_deref] $sp
	//DEBUG_VALUE: ufs_mq_make_request:wb_acct <- $w24
	//DEBUG_VALUE: ufs_mq_make_request:same_queue_rq <- $x23
	//DEBUG_VALUE: ufs_mq_make_request:bio <- $x19
	//DEBUG_VALUE: ufs_mq_bio_to_request:bio <- $x19
	.loc	1 1427 2                // kernel/block/mas_blk_iosched_ufs_mq.c:1427:2
	mov	x0, x21
	mov	x1, x19
	bl	blk_init_request_from_bio
.Ltmp568:
	.loc	1 1428 2                // kernel/block/mas_blk_iosched_ufs_mq.c:1428:2
	orr	w1, wzr, #0x1
	mov	x0, x21
	bl	blk_account_io_start
.Ltmp569:
	.loc	1 1615 3                // kernel/block/mas_blk_iosched_ufs_mq.c:1615:3
	mov	x0, x21
	bl	blk_insert_flush
	b	.LBB13_56
.Ltmp570:
.LBB13_50:
	//DEBUG_VALUE: ufs_mq_make_request:alloc_data <- [DW_OP_plus_uconst 16, DW_OP_deref] $sp
	//DEBUG_VALUE: ufs_mq_make_request:wb_acct <- $w24
	//DEBUG_VALUE: ufs_mq_make_request:same_queue_rq <- $x23
	//DEBUG_VALUE: ufs_mq_make_request:bio <- $x19
	//DEBUG_VALUE: ufs_mq_make_request:q <- $x20
	.loc	1 1739 17               // kernel/block/mas_blk_iosched_ufs_mq.c:1739:17
	ldr	x0, [x20, #88]
	.loc	1 1739 3 is_stmt 0      // kernel/block/mas_blk_iosched_ufs_mq.c:1739:3
	mov	w1, w24
	bl	__wbt_done
	.loc	1 1741 7 is_stmt 1      // kernel/block/mas_blk_iosched_ufs_mq.c:1741:7
	ldrb	w8, [x19, #19]
	tbnz	w8, #6, .LBB13_65
.Ltmp571:
.LBB13_51:
	//DEBUG_VALUE: ufs_mq_make_request:bio <- $x19
	//DEBUG_VALUE: ufs_mq_make_request:q <- $x20
	.loc	1 0 7 is_stmt 0         // kernel/block/mas_blk_iosched_ufs_mq.c:0:7
	mov	w20, #-1
.Ltmp572:
	b	.LBB13_33
.Ltmp573:
.LBB13_52:
	//DEBUG_VALUE: ufs_mq_make_request:cookie <- $w20
	//DEBUG_VALUE: ufs_mq_make_request:rq <- $x21
	//DEBUG_VALUE: ufs_mq_make_request:alloc_data <- [DW_OP_plus_uconst 16, DW_OP_deref] $sp
	//DEBUG_VALUE: ufs_mq_make_request:wb_acct <- $w24
	//DEBUG_VALUE: ufs_mq_make_request:same_queue_rq <- $x23
	//DEBUG_VALUE: ufs_mq_make_request:bio <- $x19
	.loc	1 1777 40 is_stmt 1     // kernel/block/mas_blk_iosched_ufs_mq.c:1777:40
	ldp	x23, x24, [sp, #56]
.Ltmp574:
	//DEBUG_VALUE: spin_lock:lock <- $x23
	//DEBUG_VALUE: spin_lock:lock <- $x23
	//DEBUG_VALUE: spin_unlock:lock <- $x23
	//DEBUG_VALUE: spin_unlock:lock <- $x23
	.loc	1 0 40 is_stmt 0        // kernel/block/mas_blk_iosched_ufs_mq.c:0:40
	mov	w10, #16384
	movk	w10, #12, lsl #16
.Ltmp575:
	//DEBUG_VALUE: bio_mergeable:bio <- $x19
	//DEBUG_VALUE: ufs_mq_merge_queue_io:bio <- $x19
	//DEBUG_VALUE: ufs_mq_merge_queue_io:ctx <- $x23
	//DEBUG_VALUE: ufs_mq_merge_queue_io:hctx <- $x24
	.loc	118 104 18 is_stmt 1    // kernel/include/linux/bio.h:104:18
	tst	w8, w10
.Ltmp576:
	.loc	1 1469 26               // kernel/block/mas_blk_iosched_ufs_mq.c:1469:26
	b.ne	.LBB13_54
.Ltmp577:
// %bb.53:
	//DEBUG_VALUE: ufs_mq_merge_queue_io:hctx <- $x24
	//DEBUG_VALUE: ufs_mq_merge_queue_io:ctx <- $x23
	//DEBUG_VALUE: ufs_mq_merge_queue_io:bio <- $x19
	//DEBUG_VALUE: ufs_mq_make_request:cookie <- $w20
	//DEBUG_VALUE: ufs_mq_make_request:rq <- $x21
	//DEBUG_VALUE: ufs_mq_make_request:alloc_data <- [DW_OP_plus_uconst 16, DW_OP_deref] $sp
	//DEBUG_VALUE: ufs_mq_make_request:bio <- $x19
	.loc	2 408 24                // kernel/include/linux/blkdev.h:408:24
	and	w8, w9, #0xfe
.Ltmp578:
	//DEBUG_VALUE: blk_op_is_scsi:op <- $w8
	.loc	2 398 30                // kernel/include/linux/blkdev.h:398:30
	orr	w8, w8, #0x1
.Ltmp579:
	.loc	1 1469 6                // kernel/block/mas_blk_iosched_ufs_mq.c:1469:6
	cmp	w8, #33                 // =33
	b.ne	.LBB13_70
.Ltmp580:
.LBB13_54:
	//DEBUG_VALUE: ufs_mq_merge_queue_io:hctx <- $x24
	//DEBUG_VALUE: ufs_mq_merge_queue_io:ctx <- $x23
	//DEBUG_VALUE: ufs_mq_merge_queue_io:bio <- $x19
	//DEBUG_VALUE: ufs_mq_make_request:cookie <- $w20
	//DEBUG_VALUE: ufs_mq_make_request:rq <- $x21
	//DEBUG_VALUE: ufs_mq_make_request:alloc_data <- [DW_OP_plus_uconst 16, DW_OP_deref] $sp
	//DEBUG_VALUE: ufs_mq_make_request:bio <- $x19
	//DEBUG_VALUE: ufs_mq_bio_to_request:bio <- $x19
	.loc	1 1427 2                // kernel/block/mas_blk_iosched_ufs_mq.c:1427:2
	mov	x0, x21
	mov	x1, x19
	bl	blk_init_request_from_bio
	.loc	1 1428 2                // kernel/block/mas_blk_iosched_ufs_mq.c:1428:2
	orr	w1, wzr, #0x1
	mov	x0, x21
	bl	blk_account_io_start
.Ltmp581:
	.loc	162 317 2               // kernel/include/linux/spinlock.h:317:2
	mov	x0, x23
	bl	_raw_spin_lock
.Ltmp582:
.LBB13_55:
	//DEBUG_VALUE: ufs_mq_merge_queue_io:ctx <- $x23
	//DEBUG_VALUE: ufs_mq_merge_queue_io:bio <- $x19
	//DEBUG_VALUE: ufs_mq_make_request:cookie <- $w20
	//DEBUG_VALUE: ufs_mq_make_request:rq <- $x21
	//DEBUG_VALUE: ufs_mq_make_request:alloc_data <- [DW_OP_plus_uconst 16, DW_OP_deref] $sp
	//DEBUG_VALUE: ufs_mq_make_request:bio <- $x19
	//DEBUG_LABEL: insert_rq
	.loc	1 1474 31               // kernel/block/mas_blk_iosched_ufs_mq.c:1474:31
	ldr	x1, [x24, #192]
	.loc	1 1474 3 is_stmt 0      // kernel/block/mas_blk_iosched_ufs_mq.c:1474:3
	mov	x0, x21
	bl	ufs_mq_req_insert
.Ltmp583:
	.loc	162 357 2 is_stmt 1     // kernel/include/linux/spinlock.h:357:2
	mov	x0, x23
	bl	_raw_spin_unlock
.Ltmp584:
.LBB13_56:
	//DEBUG_VALUE: ufs_mq_make_request:cookie <- $w20
	//DEBUG_VALUE: ufs_mq_make_request:rq <- $x21
	//DEBUG_VALUE: ufs_mq_make_request:alloc_data <- [DW_OP_plus_uconst 16, DW_OP_deref] $sp
	//DEBUG_VALUE: ufs_mq_make_request:bio <- $x19
	//DEBUG_LABEL: run_queue
	.loc	1 1779 34               // kernel/block/mas_blk_iosched_ufs_mq.c:1779:34
	ldr	x0, [sp, #64]
	.loc	1 1779 3 is_stmt 0      // kernel/block/mas_blk_iosched_ufs_mq.c:1779:3
	mov	w1, w22
	bl	blk_mq_run_hw_queue
.Ltmp585:
.LBB13_57:
	//DEBUG_VALUE: ufs_mq_make_request:cookie <- $w20
	//DEBUG_VALUE: ufs_mq_make_request:rq <- $x21
	//DEBUG_VALUE: ufs_mq_make_request:alloc_data <- [DW_OP_plus_uconst 16, DW_OP_deref] $sp
	//DEBUG_VALUE: ufs_mq_make_request:bio <- $x19
	.loc	1 1781 28 is_stmt 1     // kernel/block/mas_blk_iosched_ufs_mq.c:1781:28
	ldr	x8, [sp, #56]
.Ltmp586:
	//DEBUG_VALUE: blk_mq_put_ctx:ctx <- $x8
	.loc	9 119 11                // kernel/block/blk-mq.h:119:11
	ldr	x0, [x8, #144]
	.loc	9 119 18 is_stmt 0      // kernel/block/blk-mq.h:119:18
	ldr	x8, [x0, #1808]
.Ltmp587:
	.loc	9 119 32                // kernel/block/blk-mq.h:119:32
	cbz	x8, .LBB13_60
.Ltmp588:
// %bb.58:
	//DEBUG_VALUE: ufs_mq_make_request:cookie <- $w20
	//DEBUG_VALUE: ufs_mq_make_request:rq <- $x21
	//DEBUG_VALUE: ufs_mq_make_request:alloc_data <- [DW_OP_plus_uconst 16, DW_OP_deref] $sp
	//DEBUG_VALUE: ufs_mq_make_request:bio <- $x19
	.loc	9 119 62                // kernel/block/blk-mq.h:119:62
	ldr	x8, [x8, #88]
.Ltmp589:
	.loc	9 119 6                 // kernel/block/blk-mq.h:119:6
	cbz	x8, .LBB13_60
.Ltmp590:
// %bb.59:
	//DEBUG_VALUE: ufs_mq_make_request:cookie <- $w20
	//DEBUG_VALUE: ufs_mq_make_request:rq <- $x21
	//DEBUG_VALUE: ufs_mq_make_request:alloc_data <- [DW_OP_plus_uconst 16, DW_OP_deref] $sp
	//DEBUG_VALUE: ufs_mq_make_request:bio <- $x19
	.loc	9 120 3 is_stmt 1       // kernel/block/blk-mq.h:120:3
	blr	x8
	b	.LBB13_33
.Ltmp591:
.LBB13_60:
	//DEBUG_VALUE: ufs_mq_make_request:cookie <- $w20
	//DEBUG_VALUE: ufs_mq_make_request:rq <- $x21
	//DEBUG_VALUE: ufs_mq_make_request:alloc_data <- [DW_OP_plus_uconst 16, DW_OP_deref] $sp
	//DEBUG_VALUE: ufs_mq_make_request:bio <- $x19
	.loc	9 123 3                 // kernel/block/blk-mq.h:123:3
	//APP
	//NO_APP
.Ltmp592:
	.loc	163 19 2                // kernel/arch/arm64/include/asm/current.h:19:2
	//APP
	mrs x8, sp_el0
	//NO_APP
.Ltmp593:
	//DEBUG_VALUE: test_ti_thread_flag:ti <- $x8
	//DEBUG_VALUE: get_current:sp_el0 <- $x8
	//DEBUG_VALUE: get_current:sp_el0 <- $x8
	.loc	158 69 10               // kernel/include/asm-generic/preempt.h:69:10
	ldr	w9, [x8, #24]
	subs	w9, w9, #1              // =1
	str	w9, [x8, #24]
	.loc	158 69 33 is_stmt 0     // kernel/include/asm-generic/preempt.h:69:33
	b.ne	.LBB13_33
.Ltmp594:
// %bb.61:
	//DEBUG_VALUE: test_ti_thread_flag:ti <- $x8
	//DEBUG_VALUE: ufs_mq_make_request:cookie <- $w20
	//DEBUG_VALUE: ufs_mq_make_request:rq <- $x21
	//DEBUG_VALUE: ufs_mq_make_request:alloc_data <- [DW_OP_plus_uconst 16, DW_OP_deref] $sp
	//DEBUG_VALUE: ufs_mq_make_request:bio <- $x19
	//DEBUG_VALUE: test_ti_thread_flag:flag <- 1
	//DEBUG_VALUE: test_bit:nr <- 1
	//DEBUG_VALUE: test_bit:addr <- $x8
	.loc	160 106 16 is_stmt 1    // kernel/include/asm-generic/bitops/non-atomic.h:106:16
	ldr	x8, [x8]
.Ltmp595:
	.loc	9 123 3                 // kernel/block/blk-mq.h:123:3
	tbz	w8, #1, .LBB13_33
.Ltmp596:
// %bb.62:
	//DEBUG_VALUE: ufs_mq_make_request:cookie <- $w20
	//DEBUG_VALUE: ufs_mq_make_request:rq <- $x21
	//DEBUG_VALUE: ufs_mq_make_request:alloc_data <- [DW_OP_plus_uconst 16, DW_OP_deref] $sp
	//DEBUG_VALUE: ufs_mq_make_request:bio <- $x19
	.loc	9 123 3 is_stmt 0       // kernel/block/blk-mq.h:123:3
	bl	preempt_schedule
	b	.LBB13_33
.Ltmp597:
.LBB13_63:
	//DEBUG_VALUE: ufs_mq_sync_queue_rq:sched_ds <- $x22
	//DEBUG_VALUE: ufs_mq_make_sync_request:sched_ds <- $x22
	//DEBUG_VALUE: ufs_mq_make_sync_request:alloc_data <- [DW_OP_plus_uconst 16] $sp
	//DEBUG_VALUE: ufs_mq_make_sync_request:bio <- $x19
	//DEBUG_VALUE: ufs_mq_make_request:cookie <- $w20
	//DEBUG_VALUE: ufs_mq_make_request:rq <- $x21
	//DEBUG_VALUE: ufs_mq_make_request:alloc_data <- [DW_OP_plus_uconst 16, DW_OP_deref] $sp
	//DEBUG_VALUE: ufs_mq_make_request:wb_acct <- $w24
	//DEBUG_VALUE: ufs_mq_make_request:same_queue_rq <- $x23
	//DEBUG_VALUE: ufs_mq_make_request:bio <- $x19
	.loc	9 0 3                   // kernel/block/blk-mq.h:0:3
	mov	x23, x21
.Ltmp598:
	//DEBUG_VALUE: ufs_mq_sync_queue_rq:alloc_data <- [DW_OP_plus_uconst 16] $sp
	//DEBUG_VALUE: ufs_mq_sync_queue_rq:bd <- [DW_OP_plus_uconst 72] $sp
	.loc	1 1660 8 is_stmt 1      // kernel/block/mas_blk_iosched_ufs_mq.c:1660:8
	str	x21, [sp, #72]
.Ltmp599:
	//DEBUG_VALUE: ufs_mq_make_sync_request:bd <- [DW_OP_plus_uconst 72, DW_OP_deref] $sp
	.loc	1 0 8 is_stmt 0         // kernel/block/mas_blk_iosched_ufs_mq.c:0:8
	b	.LBB13_25
.Ltmp600:
.LBB13_64:
	//DEBUG_VALUE: ufs_mq_make_sync_request:sched_ds <- $x22
	//DEBUG_VALUE: ufs_mq_make_sync_request:alloc_data <- [DW_OP_plus_uconst 16] $sp
	//DEBUG_VALUE: ufs_mq_make_sync_request:bio <- $x19
	//DEBUG_VALUE: ufs_mq_make_request:cookie <- $w20
	//DEBUG_VALUE: ufs_mq_make_request:rq <- $x21
	//DEBUG_VALUE: ufs_mq_make_request:alloc_data <- [DW_OP_plus_uconst 16, DW_OP_deref] $sp
	//DEBUG_VALUE: ufs_mq_make_request:wb_acct <- $w24
	//DEBUG_VALUE: ufs_mq_make_request:same_queue_rq <- $x23
	//DEBUG_VALUE: ufs_mq_make_request:bio <- $x19
	mov	x23, xzr
.Ltmp601:
	b	.LBB13_24
.Ltmp602:
.LBB13_65:
	//DEBUG_VALUE: ufs_mq_make_request:alloc_data <- [DW_OP_plus_uconst 16, DW_OP_deref] $sp
	//DEBUG_VALUE: ufs_mq_make_request:wb_acct <- $w24
	//DEBUG_VALUE: ufs_mq_make_request:same_queue_rq <- $x23
	//DEBUG_VALUE: ufs_mq_make_request:bio <- $x19
	//DEBUG_VALUE: ufs_mq_make_request:q <- $x20
	orr	w8, wzr, #0xc
.Ltmp603:
	//DEBUG_VALUE: bio_wouldblock_error:bio <- $x19
	.loc	118 448 2 is_stmt 1     // kernel/include/linux/bio.h:448:2
	mov	x0, x19
	.loc	118 447 17              // kernel/include/linux/bio.h:447:17
	strb	w8, [x19, #26]
	.loc	118 448 2               // kernel/include/linux/bio.h:448:2
	bl	bio_endio
	mov	w20, #-1
.Ltmp604:
	.loc	118 0 2 is_stmt 0       // kernel/include/linux/bio.h:0:2
	b	.LBB13_33
.Ltmp605:
.LBB13_66:
	//DEBUG_VALUE: ufs_mq_make_sync_request:ret <- $w19
	//DEBUG_VALUE: ufs_mq_make_sync_request:bd <- [DW_OP_plus_uconst 72, DW_OP_deref] $sp
	//DEBUG_VALUE: ufs_mq_make_sync_request:sched_ds <- $x22
	//DEBUG_VALUE: ufs_mq_make_sync_request:alloc_data <- [DW_OP_plus_uconst 16] $sp
	//DEBUG_VALUE: ufs_mq_make_request:cookie <- $w20
	//DEBUG_VALUE: ufs_mq_make_request:rq <- $x21
	//DEBUG_VALUE: ufs_mq_make_request:alloc_data <- [DW_OP_plus_uconst 16, DW_OP_deref] $sp
	//DEBUG_VALUE: ufs_mq_make_request:wb_acct <- $w24
	.loc	9 123 3 is_stmt 1       // kernel/block/blk-mq.h:123:3
	bl	preempt_schedule
.Ltmp606:
	.loc	1 1663 6                // kernel/block/mas_blk_iosched_ufs_mq.c:1663:6
	cbz	w19, .LBB13_33
.Ltmp607:
.LBB13_67:
	//DEBUG_VALUE: ufs_mq_make_sync_request:ret <- $w19
	//DEBUG_VALUE: ufs_mq_make_sync_request:bd <- [DW_OP_plus_uconst 72, DW_OP_deref] $sp
	//DEBUG_VALUE: ufs_mq_make_sync_request:sched_ds <- $x22
	//DEBUG_VALUE: ufs_mq_make_sync_request:alloc_data <- [DW_OP_plus_uconst 16] $sp
	//DEBUG_VALUE: ufs_mq_make_request:cookie <- $w20
	//DEBUG_VALUE: ufs_mq_make_request:rq <- $x21
	//DEBUG_VALUE: ufs_mq_make_request:alloc_data <- [DW_OP_plus_uconst 16, DW_OP_deref] $sp
	//DEBUG_VALUE: ufs_mq_make_request:wb_acct <- $w24
	.loc	1 0 0 is_stmt 0         // kernel/block/mas_blk_iosched_ufs_mq.c:0:0
	ldr	x0, [sp, #72]
.Ltmp608:
	.loc	1 1665 13 is_stmt 1     // kernel/block/mas_blk_iosched_ufs_mq.c:1665:13
	cmp	w19, #9                 // =9
	b.ne	.LBB13_69
.Ltmp609:
// %bb.68:
	//DEBUG_VALUE: ufs_mq_make_sync_request:ret <- $w19
	//DEBUG_VALUE: ufs_mq_make_sync_request:bd <- [DW_OP_plus_uconst 72, DW_OP_deref] $sp
	//DEBUG_VALUE: ufs_mq_make_sync_request:sched_ds <- $x22
	//DEBUG_VALUE: ufs_mq_make_sync_request:alloc_data <- [DW_OP_plus_uconst 16] $sp
	//DEBUG_VALUE: ufs_mq_make_request:cookie <- $w20
	//DEBUG_VALUE: ufs_mq_make_request:rq <- $x21
	//DEBUG_VALUE: ufs_mq_make_request:alloc_data <- [DW_OP_plus_uconst 16, DW_OP_deref] $sp
	//DEBUG_VALUE: ufs_mq_make_request:wb_acct <- $w24
	.loc	1 1669 2                // kernel/block/mas_blk_iosched_ufs_mq.c:1669:2
	bl	__blk_mq_requeue_request
	.loc	1 1673 38               // kernel/block/mas_blk_iosched_ufs_mq.c:1673:38
	ldr	x19, [x21, #64]
.Ltmp610:
	//DEBUG_VALUE: ufs_mq_requeue_sync_list:q <- $x19
	//DEBUG_VALUE: ufs_mq_requeue_sync_list:rq <- $x0
	.loc	1 1673 30 is_stmt 0     // kernel/block/mas_blk_iosched_ufs_mq.c:1673:30
	ldr	x0, [sp, #72]
.Ltmp611:
	.loc	1 1403 2 is_stmt 1      // kernel/block/mas_blk_iosched_ufs_mq.c:1403:2
	mov	x1, x19
	bl	ufs_mq_insert_sync_list
.Ltmp612:
	//DEBUG_VALUE: ufs_mq_run_delay_sync_list:delay_jiffies <- 0
	//DEBUG_VALUE: ufs_mq_run_sync_list:q <- $x19
	//DEBUG_VALUE: ufs_mq_run_delay_sync_list:q <- $x19
	.loc	1 1279 44               // kernel/block/mas_blk_iosched_ufs_mq.c:1279:44
	ldr	x19, [x19, #1800]
.Ltmp613:
	//DEBUG_VALUE: ufs_mq_run_delay_sync_list:sched_ds <- $x19
	.loc	1 1281 21               // kernel/block/mas_blk_iosched_ufs_mq.c:1281:21
	adrp	x8, mas_blk_mq_sync_disp_wq
	ldr	x1, [x8, :lo12:mas_blk_mq_sync_disp_wq]
.Ltmp614:
	.loc	76 506 9                // kernel/include/linux/workqueue.h:506:9
	orr	w0, wzr, #0x8
.Ltmp615:
	.loc	1 1282 33               // kernel/block/mas_blk_iosched_ufs_mq.c:1282:33
	add	x2, x19, #32            // =32
.Ltmp616:
	//DEBUG_VALUE: queue_delayed_work:delay <- 0
	//DEBUG_VALUE: queue_delayed_work:dwork <- $x2
	//DEBUG_VALUE: queue_delayed_work:wq <- $x1
	.loc	76 506 9                // kernel/include/linux/workqueue.h:506:9
	mov	x3, xzr
	bl	queue_delayed_work_on
.Ltmp617:
	.loc	1 1283 47               // kernel/block/mas_blk_iosched_ufs_mq.c:1283:47
	bl	ktime_get
	.loc	1 1283 45 is_stmt 0     // kernel/block/mas_blk_iosched_ufs_mq.c:1283:45
	str	x0, [x19, #8]
	b	.LBB13_33
.Ltmp618:
.LBB13_69:
	//DEBUG_VALUE: ufs_mq_make_sync_request:ret <- $w19
	//DEBUG_VALUE: ufs_mq_make_sync_request:bd <- [DW_OP_plus_uconst 72, DW_OP_deref] $sp
	//DEBUG_VALUE: ufs_mq_make_sync_request:sched_ds <- $x22
	//DEBUG_VALUE: ufs_mq_make_sync_request:alloc_data <- [DW_OP_plus_uconst 16] $sp
	//DEBUG_VALUE: ufs_mq_make_request:cookie <- $w20
	//DEBUG_VALUE: ufs_mq_make_request:rq <- $x21
	//DEBUG_VALUE: ufs_mq_make_request:alloc_data <- [DW_OP_plus_uconst 16, DW_OP_deref] $sp
	//DEBUG_VALUE: ufs_mq_make_request:wb_acct <- $w24
	.loc	1 1666 3 is_stmt 1      // kernel/block/mas_blk_iosched_ufs_mq.c:1666:3
	mov	w1, #10
	bl	blk_mq_end_request
	b	.LBB13_33
.Ltmp619:
.LBB13_70:
	//DEBUG_VALUE: ufs_mq_merge_queue_io:hctx <- $x24
	//DEBUG_VALUE: ufs_mq_merge_queue_io:ctx <- $x23
	//DEBUG_VALUE: ufs_mq_merge_queue_io:bio <- $x19
	//DEBUG_VALUE: ufs_mq_make_request:cookie <- $w20
	//DEBUG_VALUE: ufs_mq_make_request:rq <- $x21
	//DEBUG_VALUE: ufs_mq_make_request:alloc_data <- [DW_OP_plus_uconst 16, DW_OP_deref] $sp
	//DEBUG_VALUE: ufs_mq_make_request:bio <- $x19
	.loc	1 0 3 is_stmt 0         // kernel/block/mas_blk_iosched_ufs_mq.c:0:3
	str	x24, [sp, #8]           // 8-byte Folded Spill
.Ltmp620:
	//DEBUG_VALUE: ufs_mq_merge_queue_io:hctx <- [DW_OP_plus_uconst 8] [$sp+0]
	ldr	x24, [x24, #192]
.Ltmp621:
	//DEBUG_VALUE: ufs_mq_merge_queue_io:q <- $x24
	.loc	162 317 2 is_stmt 1     // kernel/include/linux/spinlock.h:317:2
	mov	x0, x23
	bl	_raw_spin_lock
.Ltmp622:
	//DEBUG_VALUE: ufs_mq_attempt_merge:bio <- $x19
	//DEBUG_VALUE: ufs_mq_attempt_merge:q <- $x24
	.loc	1 1439 6                // kernel/block/mas_blk_iosched_ufs_mq.c:1439:6
	ldrb	w8, [x19, #17]
	tbnz	w8, #3, .LBB13_76
.Ltmp623:
// %bb.71:
	//DEBUG_VALUE: ufs_mq_merge_queue_io:hctx <- [DW_OP_plus_uconst 8] [$sp+0]
	//DEBUG_VALUE: ufs_mq_attempt_merge:q <- $x24
	//DEBUG_VALUE: ufs_mq_attempt_merge:bio <- $x19
	//DEBUG_VALUE: ufs_mq_merge_queue_io:q <- $x24
	//DEBUG_VALUE: ufs_mq_merge_queue_io:ctx <- $x23
	//DEBUG_VALUE: ufs_mq_merge_queue_io:bio <- $x19
	//DEBUG_VALUE: ufs_mq_make_request:cookie <- $w20
	//DEBUG_VALUE: ufs_mq_make_request:rq <- $x21
	//DEBUG_VALUE: ufs_mq_make_request:alloc_data <- [DW_OP_plus_uconst 16, DW_OP_deref] $sp
	//DEBUG_VALUE: ufs_mq_make_request:bio <- $x19
	.loc	1 1442 6                // kernel/block/mas_blk_iosched_ufs_mq.c:1442:6
	ldr	x8, [x24, #1808]
	cbz	x8, .LBB13_76
.Ltmp624:
// %bb.72:
	//DEBUG_VALUE: ufs_mq_merge_queue_io:hctx <- [DW_OP_plus_uconst 8] [$sp+0]
	//DEBUG_VALUE: ufs_mq_attempt_merge:q <- $x24
	//DEBUG_VALUE: ufs_mq_attempt_merge:bio <- $x19
	//DEBUG_VALUE: ufs_mq_merge_queue_io:q <- $x24
	//DEBUG_VALUE: ufs_mq_merge_queue_io:ctx <- $x23
	//DEBUG_VALUE: ufs_mq_merge_queue_io:bio <- $x19
	//DEBUG_VALUE: ufs_mq_make_request:cookie <- $w20
	//DEBUG_VALUE: ufs_mq_make_request:rq <- $x21
	//DEBUG_VALUE: ufs_mq_make_request:alloc_data <- [DW_OP_plus_uconst 16, DW_OP_deref] $sp
	//DEBUG_VALUE: ufs_mq_make_request:bio <- $x19
	ldr	x26, [x8, #184]
.Ltmp625:
	//DEBUG_VALUE: priv <- $x26
	.loc	1 1442 6 is_stmt 0      // kernel/block/mas_blk_iosched_ufs_mq.c:1442:6
	cbz	x26, .LBB13_76
.Ltmp626:
// %bb.73:
	//DEBUG_VALUE: ufs_mq_merge_queue_io:hctx <- [DW_OP_plus_uconst 8] [$sp+0]
	//DEBUG_VALUE: priv <- $x26
	//DEBUG_VALUE: ufs_mq_attempt_merge:q <- $x24
	//DEBUG_VALUE: ufs_mq_attempt_merge:bio <- $x19
	//DEBUG_VALUE: ufs_mq_merge_queue_io:q <- $x24
	//DEBUG_VALUE: ufs_mq_merge_queue_io:ctx <- $x23
	//DEBUG_VALUE: ufs_mq_merge_queue_io:bio <- $x19
	//DEBUG_VALUE: ufs_mq_make_request:cookie <- $w20
	//DEBUG_VALUE: ufs_mq_make_request:rq <- $x21
	//DEBUG_VALUE: ufs_mq_make_request:alloc_data <- [DW_OP_plus_uconst 16, DW_OP_deref] $sp
	//DEBUG_VALUE: ufs_mq_make_request:bio <- $x19
	.loc	1 1447 13 is_stmt 1     // kernel/block/mas_blk_iosched_ufs_mq.c:1447:13
	ldr	x8, [x26]
	.loc	1 1448 7                // kernel/block/mas_blk_iosched_ufs_mq.c:1448:7
	ldr	x8, [x8, #40]
.Ltmp627:
	.loc	1 1447 7                // kernel/block/mas_blk_iosched_ufs_mq.c:1447:7
	cbz	x8, .LBB13_76
.Ltmp628:
// %bb.74:
	//DEBUG_VALUE: ufs_mq_merge_queue_io:hctx <- [DW_OP_plus_uconst 8] [$sp+0]
	//DEBUG_VALUE: priv <- $x26
	//DEBUG_VALUE: ufs_mq_attempt_merge:q <- $x24
	//DEBUG_VALUE: ufs_mq_attempt_merge:bio <- $x19
	//DEBUG_VALUE: ufs_mq_merge_queue_io:q <- $x24
	//DEBUG_VALUE: ufs_mq_merge_queue_io:ctx <- $x23
	//DEBUG_VALUE: ufs_mq_merge_queue_io:bio <- $x19
	//DEBUG_VALUE: ufs_mq_make_request:cookie <- $w20
	//DEBUG_VALUE: ufs_mq_make_request:rq <- $x21
	//DEBUG_VALUE: ufs_mq_make_request:alloc_data <- [DW_OP_plus_uconst 16, DW_OP_deref] $sp
	//DEBUG_VALUE: ufs_mq_make_request:bio <- $x19
	.loc	1 0 0 is_stmt 0         // kernel/block/mas_blk_iosched_ufs_mq.c:0:0
	ldr	x8, [x24, #1800]
.Ltmp629:
	//DEBUG_VALUE: ufs_mq_attempt_merge:sched_ds <- $x8
	ldr	x8, [x8, #280]
.Ltmp630:
	//DEBUG_VALUE: merged <- 0
	//DEBUG_VALUE: ufs_mq_attempt_merge:ds_lld <- $x8
	//DEBUG_VALUE: spinlock_check:lock <- [DW_OP_plus_uconst 120, DW_OP_stack_value] $x8
	//DEBUG_VALUE: spin_unlock_irqrestore:lock <- [DW_OP_plus_uconst 120, DW_OP_stack_value] $x8
	.loc	162 306 16 is_stmt 1    // kernel/include/linux/spinlock.h:306:16
	add	x25, x8, #120           // =120
.Ltmp631:
	.loc	1 1451 4                // kernel/block/mas_blk_iosched_ufs_mq.c:1451:4
	mov	x0, x25
	bl	_raw_spin_lock_irqsave
.Ltmp632:
	.loc	1 1452 19               // kernel/block/mas_blk_iosched_ufs_mq.c:1452:19
	ldr	x8, [x26]
.Ltmp633:
	.loc	1 1451 4                // kernel/block/mas_blk_iosched_ufs_mq.c:1451:4
	mov	x26, x0
.Ltmp634:
	//DEBUG_VALUE: ufs_mq_attempt_merge:flags <- $x26
	.loc	1 1452 13               // kernel/block/mas_blk_iosched_ufs_mq.c:1452:13
	mov	x0, x19
	mov	x1, x24
	.loc	1 1453 9                // kernel/block/mas_blk_iosched_ufs_mq.c:1453:9
	ldr	x8, [x8, #40]
	.loc	1 1452 13               // kernel/block/mas_blk_iosched_ufs_mq.c:1452:13
	blr	x8
	mov	w24, w0
.Ltmp635:
	//DEBUG_VALUE: spin_unlock_irqrestore:flags <- $x26
	.loc	162 372 2               // kernel/include/linux/spinlock.h:372:2
	mov	x0, x25
	mov	x1, x26
	bl	_raw_spin_unlock_irqrestore
.Ltmp636:
	.loc	1 1481 6                // kernel/block/mas_blk_iosched_ufs_mq.c:1481:6
	tbz	w24, #0, .LBB13_76
.Ltmp637:
// %bb.75:
	//DEBUG_VALUE: ufs_mq_merge_queue_io:hctx <- [DW_OP_plus_uconst 8] [$sp+0]
	//DEBUG_VALUE: ufs_mq_merge_queue_io:ctx <- $x23
	//DEBUG_VALUE: ufs_mq_merge_queue_io:bio <- $x19
	//DEBUG_VALUE: ufs_mq_make_request:cookie <- $w20
	//DEBUG_VALUE: ufs_mq_make_request:rq <- $x21
	//DEBUG_VALUE: ufs_mq_make_request:alloc_data <- [DW_OP_plus_uconst 16, DW_OP_deref] $sp
	//DEBUG_VALUE: ufs_mq_make_request:bio <- $x19
	.loc	162 357 2               // kernel/include/linux/spinlock.h:357:2
	mov	x0, x23
	bl	_raw_spin_unlock
.Ltmp638:
	.loc	1 1487 2                // kernel/block/mas_blk_iosched_ufs_mq.c:1487:2
	mov	x0, x21
	bl	blk_mq_free_request
	b	.LBB13_57
.Ltmp639:
.LBB13_76:
	//DEBUG_VALUE: ufs_mq_merge_queue_io:ctx <- $x23
	//DEBUG_VALUE: ufs_mq_merge_queue_io:bio <- $x19
	//DEBUG_VALUE: ufs_mq_make_request:cookie <- $w20
	//DEBUG_VALUE: ufs_mq_make_request:rq <- $x21
	//DEBUG_VALUE: ufs_mq_make_request:alloc_data <- [DW_OP_plus_uconst 16, DW_OP_deref] $sp
	//DEBUG_VALUE: ufs_mq_make_request:bio <- $x19
	//DEBUG_VALUE: ufs_mq_bio_to_request:bio <- $x19
	.loc	1 1427 2                // kernel/block/mas_blk_iosched_ufs_mq.c:1427:2
	mov	x0, x21
	mov	x1, x19
	bl	blk_init_request_from_bio
	.loc	1 1428 2                // kernel/block/mas_blk_iosched_ufs_mq.c:1428:2
	orr	w1, wzr, #0x1
	mov	x0, x21
	bl	blk_account_io_start
	ldr	x24, [sp, #8]           // 8-byte Folded Reload
	b	.LBB13_55
.Ltmp640:
.LBB13_77:
	.loc	1 0 2 is_stmt 0         // kernel/block/mas_blk_iosched_ufs_mq.c:0:2
	bl	__stack_chk_fail
.Lfunc_end13:
	.size	ufs_mq_make_request, .Lfunc_end13-ufs_mq_make_request
	.cfi_endproc
                                        // -- End function
	.section	.text.ufs_mq_sync_io_dispatch_work_fn,"ax",@progbits
	.hidden	ufs_mq_sync_io_dispatch_work_fn // -- Begin function ufs_mq_sync_io_dispatch_work_fn
	.globl	ufs_mq_sync_io_dispatch_work_fn
	.p2align	2
	.type	ufs_mq_sync_io_dispatch_work_fn,@function
ufs_mq_sync_io_dispatch_work_fn:        // @ufs_mq_sync_io_dispatch_work_fn
.Lfunc_begin14:
	.loc	1 2338 0 is_stmt 1      // kernel/block/mas_blk_iosched_ufs_mq.c:2338:0
	.cfi_startproc
// %bb.0:
	//DEBUG_VALUE: ufs_mq_sync_io_dispatch_work_fn:work <- $x0
	//DEBUG_VALUE: ufs_mq_sync_io_dispatch_work_fn:work <- $x0
	stp	x29, x30, [sp, #-16]!   // 16-byte Folded Spill
	mov	x29, sp
	.cfi_def_cfa w29, 16
	.cfi_offset w30, -8
	.cfi_offset w29, -16
.Ltmp641:
	//DEBUG_VALUE: __mptr <- $x0
	//DEBUG_VALUE: __mptr <- $x0
	//DEBUG_VALUE: ufs_mq_sync_io_dispatch_work_fn:mq_work <- undef
	.loc	1 2342 32 prologue_end  // kernel/block/mas_blk_iosched_ufs_mq.c:2342:32
	ldr	x0, [x0, #96]
.Ltmp642:
	.loc	1 2342 2 is_stmt 0      // kernel/block/mas_blk_iosched_ufs_mq.c:2342:2
	bl	ufs_mq_sync_dispatch
	.loc	1 2343 1 is_stmt 1      // kernel/block/mas_blk_iosched_ufs_mq.c:2343:1
	ldp	x29, x30, [sp], #16     // 16-byte Folded Reload
	ret
.Ltmp643:
.Lfunc_end14:
	.size	ufs_mq_sync_io_dispatch_work_fn, .Lfunc_end14-ufs_mq_sync_io_dispatch_work_fn
	.cfi_endproc
                                        // -- End function
	.section	.text.ufs_mq_sync_dispatch,"ax",@progbits
	.p2align	2               // -- Begin function ufs_mq_sync_dispatch
	.type	ufs_mq_sync_dispatch,@function
ufs_mq_sync_dispatch:                   // @ufs_mq_sync_dispatch
.Lfunc_begin15:
	.loc	1 2276 0                // kernel/block/mas_blk_iosched_ufs_mq.c:2276:0
	.cfi_startproc
// %bb.0:
	//DEBUG_VALUE: ufs_mq_sync_dispatch:q <- $x0
	sub	sp, sp, #112            // =112
	stp	x26, x25, [sp, #32]     // 16-byte Folded Spill
	stp	x24, x23, [sp, #48]     // 16-byte Folded Spill
	stp	x22, x21, [sp, #64]     // 16-byte Folded Spill
	stp	x20, x19, [sp, #80]     // 16-byte Folded Spill
	stp	x29, x30, [sp, #96]     // 16-byte Folded Spill
	add	x29, sp, #96            // =96
	.cfi_def_cfa w29, 16
	.cfi_offset w30, -8
	.cfi_offset w29, -16
	.cfi_offset w19, -24
	.cfi_offset w20, -32
	.cfi_offset w21, -40
	.cfi_offset w22, -48
	.cfi_offset w23, -56
	.cfi_offset w24, -64
	.cfi_offset w25, -72
	.cfi_offset w26, -80
	adrp	x8, __stack_chk_guard
	ldr	x8, [x8, :lo12:__stack_chk_guard]
	mov	x19, x0
	str	x8, [sp, #24]
.Ltmp644:
	//DEBUG_VALUE: ufs_mq_sync_dispatch:hctx <- 0
	//DEBUG_VALUE: ufs_mq_sync_dispatch:rq <- 0
	//DEBUG_VALUE: ufs_mq_sync_dispatch:q <- $x19
	.loc	1 2283 44 prologue_end  // kernel/block/mas_blk_iosched_ufs_mq.c:2283:44
	ldr	x24, [x0, #1800]
.Ltmp645:
	//DEBUG_VALUE: ufs_mq_sync_dispatch:sched_ds <- $x24
	.loc	1 2284 50               // kernel/block/mas_blk_iosched_ufs_mq.c:2284:50
	ldr	x20, [x24, #280]
.Ltmp646:
	//DEBUG_VALUE: ufs_mq_sync_dispatch:ds_lld <- $x20
	//DEBUG_VALUE: ufs_mq_pick_sync_rq:ds_lld <- $x20
	//DEBUG_VALUE: atomic_sub:v <- [DW_OP_plus_uconst 88, DW_OP_stack_value] $x20
	//DEBUG_VALUE: atomic_sub:v <- [DW_OP_plus_uconst 112, DW_OP_stack_value] $x20
	//DEBUG_VALUE: spin_unlock_irqrestore:lock <- [DW_OP_plus_uconst 48, DW_OP_stack_value] $x20
	//DEBUG_VALUE: spin_unlock_irqrestore:lock <- [DW_OP_plus_uconst 48, DW_OP_stack_value] $x20
	//DEBUG_VALUE: ufs_mq_queue_rq:ds_lld <- $x20
	//DEBUG_VALUE: last_sync_io_compl_g_than:ds_lld <- $x20
	//DEBUG_VALUE: last_async_io_compl_g_than:ds_lld <- $x20
	.loc	1 2294 47               // kernel/block/mas_blk_iosched_ufs_mq.c:2294:47
	bl	ktime_get
	add	x21, x20, #48           // =48
	add	x25, x20, #72           // =72
.Ltmp647:
	//DEBUG_VALUE: list_empty_careful:head <- $x25
	.loc	1 0 47 is_stmt 0        // kernel/block/mas_blk_iosched_ufs_mq.c:0:47
	add	x26, x20, #96           // =96
.Ltmp648:
	//DEBUG_VALUE: list_empty_careful:head <- $x26
	.loc	1 2294 45               // kernel/block/mas_blk_iosched_ufs_mq.c:2294:45
	str	x0, [x24, #16]
	b	.LBB15_2
.Ltmp649:
.LBB15_1:                               //   in Loop: Header=BB15_2 Depth=1
	//DEBUG_VALUE: ufs_mq_sync_dispatch:ret <- $w0
	//DEBUG_VALUE: ufs_mq_sync_dispatch:bd <- [DW_OP_plus_uconst 8, DW_OP_deref] $sp
	//DEBUG_VALUE: ufs_mq_sync_dispatch:rq <- $x22
	//DEBUG_VALUE: ufs_mq_sync_dispatch:ds_lld <- $x20
	//DEBUG_VALUE: ufs_mq_sync_dispatch:sched_ds <- $x24
	//DEBUG_VALUE: ufs_mq_sync_dispatch:q <- $x19
	.loc	1 2331 3 is_stmt 1      // kernel/block/mas_blk_iosched_ufs_mq.c:2331:3
	mov	w1, #10
	mov	x0, x22
.Ltmp650:
	bl	blk_mq_end_request
.Ltmp651:
.LBB15_2:                               // =>This Inner Loop Header: Depth=1
	//DEBUG_VALUE: list_empty_careful:head <- $x25
	//DEBUG_VALUE: spin_unlock_irqrestore:lock <- [DW_OP_plus_uconst 48, DW_OP_stack_value] $x20
	//DEBUG_VALUE: spin_unlock_irqrestore:lock <- [DW_OP_plus_uconst 48, DW_OP_stack_value] $x20
	//DEBUG_VALUE: ufs_mq_pick_sync_rq:ds_lld <- $x20
	//DEBUG_VALUE: ufs_mq_sync_dispatch:ds_lld <- $x20
	//DEBUG_VALUE: ufs_mq_sync_dispatch:sched_ds <- $x24
	//DEBUG_VALUE: ufs_mq_sync_dispatch:q <- $x19
	.loc	1 2300 3                // kernel/block/mas_blk_iosched_ufs_mq.c:2300:3
	mov	x0, x21
	bl	_raw_spin_lock_irqsave
.Ltmp652:
	.loc	157 232 33              // kernel/include/linux/list.h:232:33
	ldr	x8, [x25]
.Ltmp653:
	//DEBUG_VALUE: list_empty_careful:next <- $x8
	.loc	1 2300 3                // kernel/block/mas_blk_iosched_ufs_mq.c:2300:3
	mov	x1, x0
.Ltmp654:
	//DEBUG_VALUE: ufs_mq_sync_dispatch:flags <- $x1
	//DEBUG_VALUE: spin_unlock_irqrestore:flags <- $x1
	//DEBUG_VALUE: spin_unlock_irqrestore:flags <- $x1
	.loc	157 233 24              // kernel/include/linux/list.h:233:24
	cmp	x8, x25
	b.eq	.LBB15_4
.Ltmp655:
.LBB15_3:                               //   in Loop: Header=BB15_2 Depth=1
	//DEBUG_VALUE: ufs_mq_sync_dispatch:flags <- $x1
	//DEBUG_VALUE: ufs_mq_pick_sync_rq:ds_lld <- $x20
	//DEBUG_VALUE: ufs_mq_sync_dispatch:ds_lld <- $x20
	//DEBUG_VALUE: ufs_mq_sync_dispatch:sched_ds <- $x24
	//DEBUG_VALUE: ufs_mq_sync_dispatch:q <- $x19
	//DEBUG_VALUE: atomic_sub:i <- 1
	.loc	153 114 1               // kernel/arch/arm64/include/asm/atomic_ll_sc.h:114:1
	add	x8, x20, #88            // =88
	//APP
	// atomic_sub
	prfm	pstl1strm, [x8]
1:	ldxr	w9, [x8]
	sub	w9, w9, #1
	stxr	w10, w9, [x8]
	cbnz	w10, 1b
	//NO_APP
.Ltmp656:
	//DEBUG_VALUE: atomic_sub:tmp <- undef
	//DEBUG_VALUE: atomic_sub:result <- undef
	.loc	153 0 1 is_stmt 0       // kernel/arch/arm64/include/asm/atomic_ll_sc.h:0:1
	mov	x8, x25
.Ltmp657:
	ldr	x22, [x8]
.Ltmp658:
	//DEBUG_VALUE: ufs_mq_queue_rq:rq <- $x22
	//DEBUG_VALUE: blk_rq_is_passthrough:rq <- $x22
	//DEBUG_VALUE: blk_rq_is_scsi:rq <- $x22
	//DEBUG_VALUE: ufs_mq_sync_dispatch:rq <- $x22
	cbnz	x22, .LBB15_8
	b	.LBB15_12
.Ltmp659:
.LBB15_4:                               //   in Loop: Header=BB15_2 Depth=1
	//DEBUG_VALUE: ufs_mq_sync_dispatch:flags <- $x1
	//DEBUG_VALUE: list_empty_careful:next <- $x8
	//DEBUG_VALUE: list_empty_careful:head <- $x25
	//DEBUG_VALUE: ufs_mq_pick_sync_rq:ds_lld <- $x20
	//DEBUG_VALUE: ufs_mq_sync_dispatch:ds_lld <- $x20
	//DEBUG_VALUE: ufs_mq_sync_dispatch:sched_ds <- $x24
	//DEBUG_VALUE: ufs_mq_sync_dispatch:q <- $x19
	.loc	157 233 42 is_stmt 1    // kernel/include/linux/list.h:233:42
	ldr	x8, [x20, #80]
.Ltmp660:
	.loc	1 1795 6                // kernel/block/mas_blk_iosched_ufs_mq.c:1795:6
	cmp	x8, x25
	b.ne	.LBB15_3
.Ltmp661:
// %bb.5:                               //   in Loop: Header=BB15_2 Depth=1
	//DEBUG_VALUE: ufs_mq_sync_dispatch:flags <- $x1
	//DEBUG_VALUE: ufs_mq_pick_sync_rq:ds_lld <- $x20
	//DEBUG_VALUE: ufs_mq_sync_dispatch:ds_lld <- $x20
	//DEBUG_VALUE: ufs_mq_sync_dispatch:sched_ds <- $x24
	//DEBUG_VALUE: ufs_mq_sync_dispatch:q <- $x19
	.loc	157 232 33              // kernel/include/linux/list.h:232:33
	ldr	x8, [x26]
.Ltmp662:
	//DEBUG_VALUE: list_empty_careful:next <- $x8
	.loc	157 233 24              // kernel/include/linux/list.h:233:24
	cmp	x8, x26
	b.ne	.LBB15_7
.Ltmp663:
// %bb.6:                               //   in Loop: Header=BB15_2 Depth=1
	//DEBUG_VALUE: list_empty_careful:next <- $x8
	//DEBUG_VALUE: ufs_mq_sync_dispatch:flags <- $x1
	//DEBUG_VALUE: ufs_mq_pick_sync_rq:ds_lld <- $x20
	//DEBUG_VALUE: ufs_mq_sync_dispatch:ds_lld <- $x20
	//DEBUG_VALUE: ufs_mq_sync_dispatch:sched_ds <- $x24
	//DEBUG_VALUE: ufs_mq_sync_dispatch:q <- $x19
	.loc	157 233 42 is_stmt 0    // kernel/include/linux/list.h:233:42
	ldr	x8, [x20, #104]
.Ltmp664:
	.loc	1 1800 6 is_stmt 1      // kernel/block/mas_blk_iosched_ufs_mq.c:1800:6
	cmp	x8, x26
	b.eq	.LBB15_12
.Ltmp665:
.LBB15_7:                               //   in Loop: Header=BB15_2 Depth=1
	//DEBUG_VALUE: ufs_mq_sync_dispatch:flags <- $x1
	//DEBUG_VALUE: ufs_mq_pick_sync_rq:ds_lld <- $x20
	//DEBUG_VALUE: ufs_mq_sync_dispatch:ds_lld <- $x20
	//DEBUG_VALUE: ufs_mq_sync_dispatch:sched_ds <- $x24
	//DEBUG_VALUE: ufs_mq_sync_dispatch:q <- $x19
	//DEBUG_VALUE: atomic_sub:i <- 1
	.loc	153 114 1               // kernel/arch/arm64/include/asm/atomic_ll_sc.h:114:1
	add	x8, x20, #112           // =112
	//APP
	// atomic_sub
	prfm	pstl1strm, [x8]
1:	ldxr	w9, [x8]
	sub	w9, w9, #1
	stxr	w10, w9, [x8]
	cbnz	w10, 1b
	//NO_APP
.Ltmp666:
	//DEBUG_VALUE: atomic_sub:tmp <- undef
	//DEBUG_VALUE: atomic_sub:result <- undef
	.loc	153 0 1 is_stmt 0       // kernel/arch/arm64/include/asm/atomic_ll_sc.h:0:1
	mov	x8, x26
.Ltmp667:
	ldr	x22, [x8]
.Ltmp668:
	//DEBUG_VALUE: ufs_mq_queue_rq:rq <- $x22
	//DEBUG_VALUE: blk_rq_is_passthrough:rq <- $x22
	//DEBUG_VALUE: blk_rq_is_scsi:rq <- $x22
	//DEBUG_VALUE: ufs_mq_sync_dispatch:rq <- $x22
	.loc	1 2302 7 is_stmt 1      // kernel/block/mas_blk_iosched_ufs_mq.c:2302:7
	cbz	x22, .LBB15_12
.Ltmp669:
.LBB15_8:                               //   in Loop: Header=BB15_2 Depth=1
	//DEBUG_VALUE: ufs_mq_sync_dispatch:rq <- $x22
	//DEBUG_VALUE: blk_rq_is_scsi:rq <- $x22
	//DEBUG_VALUE: blk_rq_is_passthrough:rq <- $x22
	//DEBUG_VALUE: ufs_mq_queue_rq:rq <- $x22
	//DEBUG_VALUE: ufs_mq_sync_dispatch:flags <- $x1
	//DEBUG_VALUE: ufs_mq_sync_dispatch:ds_lld <- $x20
	//DEBUG_VALUE: ufs_mq_sync_dispatch:sched_ds <- $x24
	//DEBUG_VALUE: ufs_mq_sync_dispatch:q <- $x19
	//DEBUG_VALUE: list_del_init:entry <- $x22
	//DEBUG_VALUE: __list_del_entry:entry <- $x22
	.loc	157 120 33              // kernel/include/linux/list.h:120:33
	ldp	x8, x9, [x22]
.Ltmp670:
	//DEBUG_VALUE: __list_del:prev <- $x9
	//DEBUG_VALUE: __list_del:next <- $x8
	.loc	162 372 2               // kernel/include/linux/spinlock.h:372:2
	mov	x0, x21
.Ltmp671:
	.loc	157 105 13              // kernel/include/linux/list.h:105:13
	str	x9, [x8, #8]
.Ltmp672:
	//DEBUG_VALUE: __write_once_size:p <- $x9
	//DEBUG_VALUE: __write_once_size:size <- 8
	//DEBUG_VALUE: __write_once_size:res <- undef
	.loc	154 210 31              // kernel/include/linux/compiler.h:210:31
	str	x8, [x9]
.Ltmp673:
	//DEBUG_VALUE: __write_once_size:p <- $x22
	//DEBUG_VALUE: __write_once_size:size <- 8
	//DEBUG_VALUE: __write_once_size:res <- undef
	//DEBUG_VALUE: INIT_LIST_HEAD:list <- $x22
	.loc	154 210 31 is_stmt 0    // kernel/include/linux/compiler.h:210:31
	str	x22, [x22]
.Ltmp674:
	.loc	157 29 13 is_stmt 1     // kernel/include/linux/list.h:29:13
	str	x22, [x22, #8]
.Ltmp675:
	.loc	162 372 2               // kernel/include/linux/spinlock.h:372:2
	bl	_raw_spin_unlock_irqrestore
.Ltmp676:
	.loc	1 2310 40               // kernel/block/mas_blk_iosched_ufs_mq.c:2310:40
	ldr	x8, [x22, #72]
.Ltmp677:
	.loc	9 78 28                 // kernel/block/blk-mq.h:78:28
	ldr	x9, [x19, #320]
	.loc	9 78 12 is_stmt 0       // kernel/block/blk-mq.h:78:12
	ldr	x10, [x19, #344]
.Ltmp678:
	.loc	1 2310 48 is_stmt 1     // kernel/block/mas_blk_iosched_ufs_mq.c:2310:48
	ldrsw	x8, [x8, #64]
.Ltmp679:
	//DEBUG_VALUE: blk_mq_map_queue:cpu <- undef
	//DEBUG_VALUE: blk_mq_map_queue:q <- $x19
	.loc	9 78 25                 // kernel/block/blk-mq.h:78:25
	ldr	w8, [x9, x8, lsl #2]
	.loc	9 78 9 is_stmt 0        // kernel/block/blk-mq.h:78:9
	ldr	x8, [x10, x8, lsl #3]
.Ltmp680:
	//DEBUG_VALUE: __ufs_mq_queue_rq_internal:hctx <- $x8
	//DEBUG_VALUE: ufs_mq_sync_dispatch:hctx <- $x8
	.loc	1 2311 9 is_stmt 1      // kernel/block/mas_blk_iosched_ufs_mq.c:2311:9
	str	x22, [sp, #8]
.Ltmp681:
	//DEBUG_VALUE: ufs_mq_queue_rq:q <- $x19
	//DEBUG_VALUE: ufs_mq_queue_rq:bd <- [DW_OP_plus_uconst 8] $sp
	//DEBUG_VALUE: ufs_mq_sync_dispatch:bd <- [DW_OP_plus_uconst 8, DW_OP_deref] $sp
	//DEBUG_VALUE: ufs_mq_queue_rq:hctx <- $x8
	.loc	2 408 24                // kernel/include/linux/blkdev.h:408:24
	ldr	w9, [x22, #84]
	and	w9, w9, #0xfc
.Ltmp682:
	.loc	2 418 28                // kernel/include/linux/blkdev.h:418:28
	orr	w9, w9, #0x3
.Ltmp683:
	.loc	1 1270 6                // kernel/block/mas_blk_iosched_ufs_mq.c:1270:6
	cmp	w9, #35                 // =35
	b.eq	.LBB15_11
.Ltmp684:
// %bb.9:                               //   in Loop: Header=BB15_2 Depth=1
	//DEBUG_VALUE: ufs_mq_queue_rq:hctx <- $x8
	//DEBUG_VALUE: ufs_mq_sync_dispatch:bd <- [DW_OP_plus_uconst 8, DW_OP_deref] $sp
	//DEBUG_VALUE: ufs_mq_queue_rq:bd <- [DW_OP_plus_uconst 8] $sp
	//DEBUG_VALUE: ufs_mq_queue_rq:q <- $x19
	//DEBUG_VALUE: ufs_mq_sync_dispatch:hctx <- $x8
	//DEBUG_VALUE: ufs_mq_sync_dispatch:rq <- $x22
	//DEBUG_VALUE: ufs_mq_queue_rq:rq <- $x22
	//DEBUG_VALUE: ufs_mq_sync_dispatch:ds_lld <- $x20
	//DEBUG_VALUE: ufs_mq_sync_dispatch:sched_ds <- $x24
	//DEBUG_VALUE: ufs_mq_sync_dispatch:q <- $x19
	.loc	1 1272 9                // kernel/block/mas_blk_iosched_ufs_mq.c:1272:9
	add	x3, sp, #8              // =8
	mov	x0, x22
	mov	x1, x8
	mov	x2, x20
	mov	x4, x19
	bl	__ufs_mq_queue_rq
.Ltmp685:
	//DEBUG_VALUE: ufs_mq_sync_dispatch:ret <- $w0
	.loc	1 2313 7                // kernel/block/mas_blk_iosched_ufs_mq.c:2313:7
	cbz	w0, .LBB15_2
.Ltmp686:
.LBB15_10:                              //   in Loop: Header=BB15_2 Depth=1
	//DEBUG_VALUE: ufs_mq_sync_dispatch:ret <- $w0
	//DEBUG_VALUE: ufs_mq_sync_dispatch:bd <- [DW_OP_plus_uconst 8, DW_OP_deref] $sp
	//DEBUG_VALUE: ufs_mq_sync_dispatch:rq <- $x22
	//DEBUG_VALUE: ufs_mq_sync_dispatch:ds_lld <- $x20
	//DEBUG_VALUE: ufs_mq_sync_dispatch:sched_ds <- $x24
	//DEBUG_VALUE: ufs_mq_sync_dispatch:q <- $x19
	cmp	w0, #9                  // =9
	b.eq	.LBB15_15
	b	.LBB15_1
.Ltmp687:
.LBB15_11:                              //   in Loop: Header=BB15_2 Depth=1
	//DEBUG_VALUE: ufs_mq_queue_rq:hctx <- $x8
	//DEBUG_VALUE: ufs_mq_sync_dispatch:bd <- [DW_OP_plus_uconst 8, DW_OP_deref] $sp
	//DEBUG_VALUE: ufs_mq_queue_rq:bd <- [DW_OP_plus_uconst 8] $sp
	//DEBUG_VALUE: ufs_mq_queue_rq:q <- $x19
	//DEBUG_VALUE: ufs_mq_sync_dispatch:hctx <- $x8
	//DEBUG_VALUE: __ufs_mq_queue_rq_internal:hctx <- $x8
	//DEBUG_VALUE: ufs_mq_sync_dispatch:rq <- $x22
	//DEBUG_VALUE: ufs_mq_queue_rq:rq <- $x22
	//DEBUG_VALUE: ufs_mq_sync_dispatch:ds_lld <- $x20
	//DEBUG_VALUE: ufs_mq_sync_dispatch:sched_ds <- $x24
	//DEBUG_VALUE: ufs_mq_sync_dispatch:q <- $x19
	//DEBUG_VALUE: __ufs_mq_queue_rq_internal:q <- $x19
	//DEBUG_VALUE: __ufs_mq_queue_rq_internal:bd <- [DW_OP_plus_uconst 8] $sp
	//DEBUG_VALUE: __ufs_mq_queue_rq_internal:ds_lld <- undef
	.loc	1 1216 11               // kernel/block/mas_blk_iosched_ufs_mq.c:1216:11
	ldr	x9, [x19, #312]
	.loc	1 1216 8 is_stmt 0      // kernel/block/mas_blk_iosched_ufs_mq.c:1216:8
	add	x1, sp, #8              // =8
	mov	x0, x8
	.loc	1 1216 19               // kernel/block/mas_blk_iosched_ufs_mq.c:1216:19
	ldr	x9, [x9]
	.loc	1 1216 8                // kernel/block/mas_blk_iosched_ufs_mq.c:1216:8
	blr	x9
.Ltmp688:
	.loc	1 1217 32 is_stmt 1     // kernel/block/mas_blk_iosched_ufs_mq.c:1217:32
	ldr	x8, [sp, #8]
	.loc	1 1216 8                // kernel/block/mas_blk_iosched_ufs_mq.c:1216:8
	mov	w23, w0
.Ltmp689:
	//DEBUG_VALUE: __ufs_mq_queue_rq_internal:ret <- undef
